                             //
                             // segment_1.1 
                             // Loadable segment  [0x0 - 0x8ff]
                             // ram:00100000-ram:0010058f
                             //
             assume DF = 0x0  (Default)
        00100000 7f 45 4c        Elf64_Ehdr
                 46 02 01 
                 01 00 00 
           00100000 7f              db        7Fh                     e_ident_magi
           00100001 45 4c 46        ds        "ELF"                   e_ident_magi
           00100004 02              db        2h                      e_ident_class
           00100005 01              db        1h                      e_ident_data
           00100006 01              db        1h                      e_ident_vers
           00100007 00              db        0h                      e_ident_osabi
           00100008 00              db        0h                      e_ident_abiv
           00100009 00 00 00 00 00  db[7]                             e_ident_pad
                    00 00
           00100010 03 00           dw        3h                      e_type
           00100012 3e 00           dw        3Eh                     e_machine
           00100014 01 00 00 00     ddw       1h                      e_version
           00100018 80 11 00 00 00  dq        _start                  e_entry
                    00 00 00
           00100020 40 00 00 00 00  dq        Elf64_Phdr_ARRAY_00100  e_phoff
                    00 00 00
           00100028 00 50 00 00 00  dq        Elf64_Shdr_ARRAY_00105  e_shoff
                    00 00 00
           00100030 00 00 00 00     ddw       0h                      e_flags
           00100034 40 00           dw        40h                     e_ehsize
           00100036 38 00           dw        38h                     e_phentsize
           00100038 0f 00           dw        Fh                      e_phnum
           0010003a 40 00           dw        40h                     e_shentsize
           0010003c 1f 00           dw        1Fh                     e_shnum
           0010003e 18 00           dw        18h                     e_shstrndx
                             Elf64_Phdr_ARRAY_00100040                       XREF[2]:     00100020(*), 00100050(*)  
        00100040 06 00 00        Elf64_Ph                                                    PT_PHDR - Program header table
                 00 04 00 
                 00 00 40 
                             __abi_tag (00100388+4)
        00100388 5a 5a 5a        ds         "ZZZZZZZZZZZZZZZZZZZZZZZZZZZZZZZZZZZZ"
                 5a 5a 5a 
                 5a 5a 5a 
        001003b0 5a              ??         5Ah    Z
        001003b1 5a              ??         5Ah    Z
        001003b2 5a              ??         5Ah    Z
        001003b3 5a              ??         5Ah    Z
        001003b4 5a              ??         5Ah    Z
        001003b5 5a              ??         5Ah    Z
        001003b6 5a              ??         5Ah    Z
        001003b7 5a              ??         5Ah    Z
        001003b8 5a              ??         5Ah    Z
        001003b9 5a              ??         5Ah    Z
        001003ba 5a              ??         5Ah    Z
        001003bb 5a              ??         5Ah    Z
        001003bc 5a              ??         5Ah    Z
        001003bd 5a              ??         5Ah    Z
        001003be 5a              ??         5Ah    Z
        001003bf 5a              ??         5Ah    Z
        001003c0 5a              ??         5Ah    Z
        001003c1 5a              ??         5Ah    Z
        001003c2 5a              ??         5Ah    Z
        001003c3 5a              ??         5Ah    Z
        001003c4 5a              ??         5Ah    Z
        001003c5 5a              ??         5Ah    Z
        001003c6 5a              ??         5Ah    Z
        001003c7 5a              ??         5Ah    Z
        001003c8 5a              ??         5Ah    Z
        001003c9 5a              ??         5Ah    Z
        001003ca 5a              ??         5Ah    Z
        001003cb 5a              ??         5Ah    Z
        001003cc 5a              ??         5Ah    Z
        001003cd 5a              ??         5Ah    Z
        001003ce 5a              ??         5Ah    Z
        001003cf 5a              ??         5Ah    Z
        001003d0 5a              ??         5Ah    Z
        001003d1 5a              ??         5Ah    Z
        001003d2 5a              ??         5Ah    Z
        001003d3 5a              ??         5Ah    Z
        001003d4 5a              ??         5Ah    Z
        001003d5 5a              ??         5Ah    Z
        001003d6 5a              ??         5Ah    Z
        001003d7 5a              ??         5Ah    Z
        001003d8 5a              ??         5Ah    Z
        001003d9 5a              ??         5Ah    Z
        001003da 5a              ??         5Ah    Z
        001003db 5a              ??         5Ah    Z
        001003dc 5a              ??         5Ah    Z
        001003dd 5a              ??         5Ah    Z
        001003de 5a              ??         5Ah    Z
        001003df 5a              ??         5Ah    Z
        001003e0 5a              ??         5Ah    Z
        001003e1 5a              ??         5Ah    Z
        001003e2 5a              ??         5Ah    Z
        001003e3 5a              ??         5Ah    Z
        001003e4 5a              ??         5Ah    Z
        001003e5 5a              ??         5Ah    Z
        001003e6 5a              ??         5Ah    Z
        001003e7 5a              ??         5Ah    Z
        001003e8 5a              ??         5Ah    Z
        001003e9 5a              ??         5Ah    Z
        001003ea 5a              ??         5Ah    Z
        001003eb 5a              ??         5Ah    Z
        001003ec 5a              ??         5Ah    Z
        001003ed 5a              ??         5Ah    Z
        001003ee 5a              ??         5Ah    Z
        001003ef 5a              ??         5Ah    Z
        001003f0 5a              ??         5Ah    Z
        001003f1 5a              ??         5Ah    Z
        001003f2 5a              ??         5Ah    Z
        001003f3 5a              ??         5Ah    Z
        001003f4 5a              ??         5Ah    Z
        001003f5 5a              ??         5Ah    Z
        001003f6 5a              ??         5Ah    Z
        001003f7 5a              ??         5Ah    Z
        001003f8 5a              ??         5Ah    Z
        001003f9 5a              ??         5Ah    Z
        001003fa 5a              ??         5Ah    Z
        001003fb 5a              ??         5Ah    Z
        001003fc 5a              ??         5Ah    Z
        001003fd 5a              ??         5Ah    Z
        001003fe 5a              ??         5Ah    Z
        001003ff 5a              ??         5Ah    Z
        00100400 5a              ??         5Ah    Z
        00100401 5a              ??         5Ah    Z
        00100402 5a              ??         5Ah    Z
        00100403 5a              ??         5Ah    Z
        00100404 5a              ??         5Ah    Z
        00100405 5a              ??         5Ah    Z
        00100406 5a              ??         5Ah    Z
        00100407 5a              ??         5Ah    Z
        00100408 5a              ??         5Ah    Z
        00100409 5a              ??         5Ah    Z
        0010040a 5a              ??         5Ah    Z
        0010040b 5a              ??         5Ah    Z
        0010040c 5a              ??         5Ah    Z
        0010040d 5a              ??         5Ah    Z
        0010040e 5a              ??         5Ah    Z
        0010040f 5a              ??         5Ah    Z
        00100410 5a              ??         5Ah    Z
        00100411 5a              ??         5Ah    Z
        00100412 5a              ??         5Ah    Z
        00100413 5a              ??         5Ah    Z
        00100414 5a              ??         5Ah    Z
        00100415 5a              ??         5Ah    Z
        00100416 5a              ??         5Ah    Z
        00100417 5a              ??         5Ah    Z
        00100418 5a              ??         5Ah    Z
        00100419 5a              ??         5Ah    Z
        0010041a 5a              ??         5Ah    Z
        0010041b 5a              ??         5Ah    Z
        0010041c 5a              ??         5Ah    Z
        0010041d 5a              ??         5Ah    Z
        0010041e 5a              ??         5Ah    Z
        0010041f 5a              ??         5Ah    Z
        00100420 5a              ??         5Ah    Z
        00100421 5a              ??         5Ah    Z
        00100422 5a              ??         5Ah    Z
        00100423 5a              ??         5Ah    Z
        00100424 5a              ??         5Ah    Z
        00100425 5a              ??         5Ah    Z
        00100426 5a              ??         5Ah    Z
        00100427 5a              ??         5Ah    Z
        00100428 5a              ??         5Ah    Z
        00100429 5a              ??         5Ah    Z
        0010042a 5a              ??         5Ah    Z
        0010042b 5a              ??         5Ah    Z
        0010042c 5a              ??         5Ah    Z
        0010042d 5a              ??         5Ah    Z
        0010042e 5a              ??         5Ah    Z
        0010042f 5a              ??         5Ah    Z
        00100430 5a              ??         5Ah    Z
        00100431 5a              ??         5Ah    Z
        00100432 5a              ??         5Ah    Z
        00100433 5a              ??         5Ah    Z
        00100434 5a              ??         5Ah    Z
        00100435 5a              ??         5Ah    Z
        00100436 5a              ??         5Ah    Z
        00100437 5a              ??         5Ah    Z
        00100438 5a              ??         5Ah    Z
        00100439 5a              ??         5Ah    Z
        0010043a 5a              ??         5Ah    Z
        0010043b 5a              ??         5Ah    Z
        0010043c 5a              ??         5Ah    Z
        0010043d 5a              ??         5Ah    Z
        0010043e 5a              ??         5Ah    Z
        0010043f 5a              ??         5Ah    Z
        00100440 5a              ??         5Ah    Z
        00100441 5a              ??         5Ah    Z
        00100442 5a              ??         5Ah    Z
        00100443 5a              ??         5Ah    Z
        00100444 5a              ??         5Ah    Z
        00100445 5a              ??         5Ah    Z
        00100446 5a              ??         5Ah    Z
        00100447 5a              ??         5Ah    Z
        00100448 5a              ??         5Ah    Z
        00100449 5a              ??         5Ah    Z
        0010044a 5a              ??         5Ah    Z
        0010044b 5a              ??         5Ah    Z
        0010044c 5a              ??         5Ah    Z
        0010044d 5a              ??         5Ah    Z
        0010044e 5a              ??         5Ah    Z
        0010044f 5a              ??         5Ah    Z
        00100450 5a              ??         5Ah    Z
        00100451 5a              ??         5Ah    Z
        00100452 5a              ??         5Ah    Z
        00100453 5a              ??         5Ah    Z
        00100454 5a              ??         5Ah    Z
        00100455 5a              ??         5Ah    Z
        00100456 5a              ??         5Ah    Z
        00100457 5a              ??         5Ah    Z
        00100458 5a              ??         5Ah    Z
        00100459 5a              ??         5Ah    Z
        0010045a 5a              ??         5Ah    Z
        0010045b 5a              ??         5Ah    Z
        0010045c 5a              ??         5Ah    Z
        0010045d 5a              ??         5Ah    Z
        0010045e 5a              ??         5Ah    Z
        0010045f 5a              ??         5Ah    Z
        00100460 5a              ??         5Ah    Z
        00100461 5a              ??         5Ah    Z
        00100462 5a              ??         5Ah    Z
        00100463 5a              ??         5Ah    Z
        00100464 5a              ??         5Ah    Z
        00100465 5a              ??         5Ah    Z
        00100466 5a              ??         5Ah    Z
        00100467 5a              ??         5Ah    Z
        00100468 5a              ??         5Ah    Z
        00100469 5a              ??         5Ah    Z
        0010046a 5a              ??         5Ah    Z
        0010046b 5a              ??         5Ah    Z
        0010046c 5a              ??         5Ah    Z
        0010046d 5a              ??         5Ah    Z
        0010046e 5a              ??         5Ah    Z
        0010046f 5a              ??         5Ah    Z
        00100470 5a              ??         5Ah    Z
        00100471 5a              ??         5Ah    Z
        00100472 5a              ??         5Ah    Z
        00100473 5a              ??         5Ah    Z
        00100474 5a              ??         5Ah    Z
        00100475 5a              ??         5Ah    Z
        00100476 5a              ??         5Ah    Z
        00100477 5a              ??         5Ah    Z
        00100478 5a              ??         5Ah    Z
        00100479 5a              ??         5Ah    Z
        0010047a 5a              ??         5Ah    Z
        0010047b 5a              ??         5Ah    Z
        0010047c 5a              ??         5Ah    Z
        0010047d 5a              ??         5Ah    Z
        0010047e 5a              ??         5Ah    Z
        0010047f 5a              ??         5Ah    Z
        00100480 5a              ??         5Ah    Z
        00100481 5a              ??         5Ah    Z
        00100482 5a              ??         5Ah    Z
        00100483 5a              ??         5Ah    Z
        00100484 5a              ??         5Ah    Z
        00100485 5a              ??         5Ah    Z
        00100486 5a              ??         5Ah    Z
        00100487 5a              ??         5Ah    Z
        00100488 5a              ??         5Ah    Z
        00100489 5a              ??         5Ah    Z
        0010048a 5a              ??         5Ah    Z
        0010048b 5a              ??         5Ah    Z
        0010048c 5a              ??         5Ah    Z
        0010048d 5a              ??         5Ah    Z
        0010048e 5a              ??         5Ah    Z
        0010048f 5a              ??         5Ah    Z
        00100490 5a              ??         5Ah    Z
        00100491 5a              ??         5Ah    Z
        00100492 5a              ??         5Ah    Z
        00100493 5a              ??         5Ah    Z
        00100494 5a              ??         5Ah    Z
        00100495 5a              ??         5Ah    Z
        00100496 5a              ??         5Ah    Z
        00100497 5a              ??         5Ah    Z
        00100498 5a              ??         5Ah    Z
        00100499 5a              ??         5Ah    Z
        0010049a 5a              ??         5Ah    Z
        0010049b 5a              ??         5Ah    Z
        0010049c 5a              ??         5Ah    Z
        0010049d 5a              ??         5Ah    Z
        0010049e 5a              ??         5Ah    Z
        0010049f 5a              ??         5Ah    Z
        001004a0 5a              ??         5Ah    Z
        001004a1 5a              ??         5Ah    Z
        001004a2 5a              ??         5Ah    Z
        001004a3 5a              ??         5Ah    Z
        001004a4 5a              ??         5Ah    Z
        001004a5 5a              ??         5Ah    Z
        001004a6 5a              ??         5Ah    Z
        001004a7 5a              ??         5Ah    Z
        001004a8 5a              ??         5Ah    Z
        001004a9 5a              ??         5Ah    Z
        001004aa 5a              ??         5Ah    Z
        001004ab 5a              ??         5Ah    Z
        001004ac 5a              ??         5Ah    Z
        001004ad 5a              ??         5Ah    Z
        001004ae 5a              ??         5Ah    Z
        001004af 5a              ??         5Ah    Z
        001004b0 5a              ??         5Ah    Z
        001004b1 5a              ??         5Ah    Z
        001004b2 5a              ??         5Ah    Z
        001004b3 5a              ??         5Ah    Z
        001004b4 5a              ??         5Ah    Z
        001004b5 5a              ??         5Ah    Z
        001004b6 5a              ??         5Ah    Z
        001004b7 5a              ??         5Ah    Z
        001004b8 5a              ??         5Ah    Z
        001004b9 5a              ??         5Ah    Z
        001004ba 5a              ??         5Ah    Z
        001004bb 5a              ??         5Ah    Z
        001004bc 5a              ??         5Ah    Z
        001004bd 5a              ??         5Ah    Z
        001004be 5a              ??         5Ah    Z
        001004bf 5a              ??         5Ah    Z
        001004c0 5a              ??         5Ah    Z
        001004c1 5a              ??         5Ah    Z
        001004c2 5a              ??         5Ah    Z
        001004c3 5a              ??         5Ah    Z
        001004c4 5a              ??         5Ah    Z
        001004c5 5a              ??         5Ah    Z
        001004c6 5a              ??         5Ah    Z
        001004c7 5a              ??         5Ah    Z
        001004c8 5a              ??         5Ah    Z
        001004c9 5a              ??         5Ah    Z
        001004ca 5a              ??         5Ah    Z
        001004cb 5a              ??         5Ah    Z
        001004cc 5a              ??         5Ah    Z
        001004cd 5a              ??         5Ah    Z
        001004ce 5a              ??         5Ah    Z
        001004cf 5a              ??         5Ah    Z
        001004d0 5a              ??         5Ah    Z
        001004d1 5a              ??         5Ah    Z
        001004d2 5a              ??         5Ah    Z
        001004d3 5a              ??         5Ah    Z
        001004d4 5a              ??         5Ah    Z
        001004d5 5a              ??         5Ah    Z
        001004d6 5a              ??         5Ah    Z
        001004d7 5a              ??         5Ah    Z
        001004d8 5a              ??         5Ah    Z
        001004d9 5a              ??         5Ah    Z
        001004da 5a              ??         5Ah    Z
        001004db 5a              ??         5Ah    Z
        001004dc 5a              ??         5Ah    Z
        001004dd 5a              ??         5Ah    Z
        001004de 5a              ??         5Ah    Z
        001004df 5a              ??         5Ah    Z
        001004e0 5a              ??         5Ah    Z
        001004e1 5a              ??         5Ah    Z
        001004e2 5a              ??         5Ah    Z
        001004e3 5a              ??         5Ah    Z
        001004e4 5a              ??         5Ah    Z
        001004e5 5a              ??         5Ah    Z
        001004e6 5a              ??         5Ah    Z
        001004e7 5a              ??         5Ah    Z
        001004e8 5a              ??         5Ah    Z
        001004e9 5a              ??         5Ah    Z
        001004ea 5a              ??         5Ah    Z
        001004eb 5a              ??         5Ah    Z
        001004ec 5a              ??         5Ah    Z
        001004ed 5a              ??         5Ah    Z
        001004ee 5a              ??         5Ah    Z
        001004ef 5a              ??         5Ah    Z
        001004f0 5a              ??         5Ah    Z
        001004f1 5a              ??         5Ah    Z
        001004f2 5a              ??         5Ah    Z
        001004f3 5a              ??         5Ah    Z
        001004f4 5a              ??         5Ah    Z
        001004f5 5a              ??         5Ah    Z
        001004f6 5a              ??         5Ah    Z
        001004f7 5a              ??         5Ah    Z
        001004f8 5a              ??         5Ah    Z
        001004f9 5a              ??         5Ah    Z
        001004fa 5a              ??         5Ah    Z
        001004fb 5a              ??         5Ah    Z
        001004fc 5a              ??         5Ah    Z
        001004fd 5a              ??         5Ah    Z
        001004fe 5a              ??         5Ah    Z
        001004ff 5a              ??         5Ah    Z
        00100500 5a              ??         5Ah    Z
        00100501 5a              ??         5Ah    Z
        00100502 5a              ??         5Ah    Z
        00100503 5a              ??         5Ah    Z
        00100504 5a              ??         5Ah    Z
        00100505 5a              ??         5Ah    Z
        00100506 5a              ??         5Ah    Z
        00100507 5a              ??         5Ah    Z
        00100508 5a              ??         5Ah    Z
        00100509 5a              ??         5Ah    Z
        0010050a 5a              ??         5Ah    Z
        0010050b 5a              ??         5Ah    Z
        0010050c 5a              ??         5Ah    Z
        0010050d 5a              ??         5Ah    Z
        0010050e 5a              ??         5Ah    Z
        0010050f 5a              ??         5Ah    Z
        00100510 5a              ??         5Ah    Z
        00100511 5a              ??         5Ah    Z
        00100512 5a              ??         5Ah    Z
        00100513 5a              ??         5Ah    Z
        00100514 5a              ??         5Ah    Z
        00100515 5a              ??         5Ah    Z
        00100516 5a              ??         5Ah    Z
        00100517 5a              ??         5Ah    Z
        00100518 5a              ??         5Ah    Z
        00100519 5a              ??         5Ah    Z
        0010051a 5a              ??         5Ah    Z
        0010051b 5a              ??         5Ah    Z
        0010051c 5a              ??         5Ah    Z
        0010051d 5a              ??         5Ah    Z
        0010051e 5a              ??         5Ah    Z
        0010051f 5a              ??         5Ah    Z
        00100520 5a              ??         5Ah    Z
        00100521 5a              ??         5Ah    Z
        00100522 5a              ??         5Ah    Z
        00100523 5a              ??         5Ah    Z
        00100524 5a              ??         5Ah    Z
        00100525 5a              ??         5Ah    Z
        00100526 5a              ??         5Ah    Z
        00100527 5a              ??         5Ah    Z
        00100528 5a              ??         5Ah    Z
        00100529 5a              ??         5Ah    Z
        0010052a 5a              ??         5Ah    Z
        0010052b 5a              ??         5Ah    Z
        0010052c 5a              ??         5Ah    Z
        0010052d 5a              ??         5Ah    Z
        0010052e 5a              ??         5Ah    Z
        0010052f 5a              ??         5Ah    Z
        00100530 5a              ??         5Ah    Z
        00100531 5a              ??         5Ah    Z
        00100532 5a              ??         5Ah    Z
        00100533 5a              ??         5Ah    Z
        00100534 5a              ??         5Ah    Z
        00100535 5a              ??         5Ah    Z
        00100536 5a              ??         5Ah    Z
        00100537 5a              ??         5Ah    Z
        00100538 5a              ??         5Ah    Z
        00100539 5a              ??         5Ah    Z
        0010053a 5a              ??         5Ah    Z
        0010053b 5a              ??         5Ah    Z
        0010053c 5a              ??         5Ah    Z
        0010053d 5a              ??         5Ah    Z
        0010053e 5a              ??         5Ah    Z
        0010053f 5a              ??         5Ah    Z
        00100540 5a              ??         5Ah    Z
        00100541 5a              ??         5Ah    Z
        00100542 5a              ??         5Ah    Z
        00100543 5a              ??         5Ah    Z
        00100544 5a              ??         5Ah    Z
        00100545 5a              ??         5Ah    Z
        00100546 5a              ??         5Ah    Z
        00100547 5a              ??         5Ah    Z
        00100548 5a              ??         5Ah    Z
        00100549 5a              ??         5Ah    Z
        0010054a 5a              ??         5Ah    Z
        0010054b 5a              ??         5Ah    Z
        0010054c 5a              ??         5Ah    Z
        0010054d 5a              ??         5Ah    Z
        0010054e 5a              ??         5Ah    Z
        0010054f 5a              ??         5Ah    Z
        00100550 5a              ??         5Ah    Z
        00100551 5a              ??         5Ah    Z
        00100552 5a              ??         5Ah    Z
        00100553 5a              ??         5Ah    Z
        00100554 5a              ??         5Ah    Z
        00100555 5a              ??         5Ah    Z
        00100556 5a              ??         5Ah    Z
        00100557 5a              ??         5Ah    Z
        00100558 5a              ??         5Ah    Z
        00100559 5a              ??         5Ah    Z
        0010055a 5a              ??         5Ah    Z
        0010055b 5a              ??         5Ah    Z
        0010055c 5a              ??         5Ah    Z
        0010055d 5a              ??         5Ah    Z
        0010055e 5a              ??         5Ah    Z
        0010055f 5a              ??         5Ah    Z
        00100560 5a              ??         5Ah    Z
        00100561 5a              ??         5Ah    Z
        00100562 5a              ??         5Ah    Z
        00100563 5a              ??         5Ah    Z
        00100564 5a              ??         5Ah    Z
        00100565 5a              ??         5Ah    Z
        00100566 5a              ??         5Ah    Z
        00100567 5a              ??         5Ah    Z
        00100568 5a              ??         5Ah    Z
        00100569 5a              ??         5Ah    Z
        0010056a 5a              ??         5Ah    Z
        0010056b 5a              ??         5Ah    Z
        0010056c 5a              ??         5Ah    Z
        0010056d 5a              ??         5Ah    Z
        0010056e 5a              ??         5Ah    Z
        0010056f 5a              ??         5Ah    Z
        00100570 5a              ??         5Ah    Z
        00100571 5a              ??         5Ah    Z
        00100572 5a              ??         5Ah    Z
        00100573 5a              ??         5Ah    Z
        00100574 5a              ??         5Ah    Z
        00100575 5a              ??         5Ah    Z
        00100576 5a              ??         5Ah    Z
        00100577 5a              ??         5Ah    Z
        00100578 5a              ??         5Ah    Z
        00100579 5a              ??         5Ah    Z
        0010057a 5a              ??         5Ah    Z
        0010057b 5a              ??         5Ah    Z
        0010057c 5a              ??         5Ah    Z
        0010057d 5a              ??         5Ah    Z
        0010057e 5a              ??         5Ah    Z
        0010057f 5a              ??         5Ah    Z
        00100580 5a              ??         5Ah    Z
        00100581 5a              ??         5Ah    Z
        00100582 5a              ??         5Ah    Z
        00100583 5a              ??         5Ah    Z
        00100584 5a              ??         5Ah    Z
        00100585 5a              ??         5Ah    Z
        00100586 5a              ??         5Ah    Z
        00100587 5a              ??         5Ah    Z
        00100588 5a              ??         5Ah    Z
        00100589 5a              ??         5Ah    Z
        0010058a 5a              ??         5Ah    Z
        0010058b 5a              ??         5Ah    Z
        0010058c 5a              ??         5Ah    Z
        0010058d 5a              ??         5Ah    Z
        0010058e 5a              ??         5Ah    Z
        0010058f 5a              ??         5Ah    Z
                             //
                             // .dynstr 
                             // SHT_STRTAB  [0x590 - 0x697]
                             // ram:00100590-ram:00100697
                             //
                             __DT_STRTAB                                     XREF[2]:     00103e08(*), 00105050(*)  
        00100590 00              ??         00h
        00100591 66 67 65        utf8       u8"fgets"
                 74 73 00
        00100597 73 65 74        utf8       u8"setvbuf"
                 76 62 75 
                 66 00
        0010059f 73 74 64        utf8       u8"stdin"
                 69 6e 00
        001005a5 70 75 74        utf8       u8"puts"
                 73 00
        001005aa 5f 5f 73        utf8       u8"__stack_chk_fail"
                 74 61 63 
                 6b 5f 63 
        001005bb 65 78 69        utf8       u8"exit"
                 74 00
        001005c0 73 74 61        utf8       u8"stat"
                 74 00
        001005c5 66 6f 70        utf8       u8"fopen"
                 65 6e 00
        001005cb 73 74 64        utf8       u8"stdout"
                 6f 75 74 00
        001005d2 5f 5f 6c        utf8       u8"__libc_start_main"
                 69 62 63 
                 5f 73 74 
        001005e4 5f 5f 63        utf8       u8"__cxa_finalize"
                 78 61 5f 
                 66 69 6e 
        001005f3 66 63 6c        utf8       u8"fclose"
                 6f 73 65 00
        001005fa 70 72 69        utf8       u8"printf"
                 6e 74 66 00
        00100601 5f 5f 69        utf8       u8"__isoc99_scanf"
                 73 6f 63 
                 39 39 5f 
        00100610 6c 69 62        utf8       u8"libc.so.6"
                 63 2e 73 
                 6f 2e 36 00
        0010061a 47 4c 49        utf8       u8"GLIBC_2.7"
                 42 43 5f 
                 32 2e 37 00
        00100624 47 4c 49        utf8       u8"GLIBC_2.33"
                 42 43 5f 
                 32 2e 33 
        0010062f 47 4c 49        utf8       u8"GLIBC_2.4"
                 42 43 5f 
                 32 2e 34 00
        00100639 47 4c 49        utf8       u8"GLIBC_2.2.5"
                 42 43 5f 
                 32 2e 32 
        00100645 47 4c 49        utf8       u8"GLIBC_2.34"
                 42 43 5f 
                 32 2e 33 
        00100650 2e 2f 00        utf8       u8"./"
        00100653 5f 49 54        utf8       u8"_ITM_deregisterTMCloneTable"
                 4d 5f 64 
                 65 72 65 
        0010066f 5f 5f 67        utf8       u8"__gmon_start__"
                 6d 6f 6e 
                 5f 73 74 
        0010067e 5f 49 54        utf8       u8"_ITM_registerTMCloneTable"
                 4d 5f 72 
                 65 67 69 
                             //
                             // .gnu.version 
                             // SHT_GNU_versym  [0x698 - 0x6bb]
                             // ram:00100698-ram:001006bb
                             //
                             __DT_VERSYM                                     XREF[2]:     00103f08(*), 00105090(*)  
        00100698 00 00           dw         0h                                               0
        0010069a 02 00           dw         2h                                               __libc_start_main
        0010069c 01 00           dw         1h                                               _ITM_deregisterTMCloneTable
        0010069e 03 00           dw         3h                                               puts
        001006a0 03 00           dw         3h                                               fclose
        001006a2 04 00           dw         4h                                               __stack_chk_fail
        001006a4 03 00           dw         3h                                               printf
        001006a6 03 00           dw         3h                                               fgets
        001006a8 01 00           dw         1h                                               __gmon_start__
        001006aa 05 00           dw         5h                                               stat
        001006ac 03 00           dw         3h                                               setvbuf
        001006ae 03 00           dw         3h                                               fopen
        001006b0 06 00           dw         6h                                               __isoc99_scanf
        001006b2 03 00           dw         3h                                               exit
        001006b4 01 00           dw         1h                                               _ITM_registerTMCloneTable
        001006b6 03 00           dw         3h                                               stdout
        001006b8 03 00           dw         3h                                               __cxa_finalize
        001006ba 03 00           dw         3h                                               stdin
                             //
                             // .gnu.version_r 
                             // SHT_GNU_verneed  [0x6c0 - 0x71f]
                             // ram:001006c0-ram:0010071f
                             //
                             __DT_VERNEED                                    XREF[2]:     00103ee8(*), 001050d0(*)  
        001006c0 01              ??         01h
        001006c1 00              ??         00h
        001006c2 05              ??         05h
        001006c3 00              ??         00h
        001006c4 80              ??         80h
        001006c5 00              ??         00h
        001006c6 00              ??         00h                                              ?  ->  00100000
        001006c7 00              ??         00h
        001006c8 10              ??         10h
        001006c9 00              ??         00h
        001006ca 00              ??         00h
        001006cb 00              ??         00h
        001006cc 00              ??         00h
        001006cd 00              ??         00h
        001006ce 00              ??         00h
        001006cf 00              ??         00h
        001006d0 17              ??         17h
        001006d1 69              ??         69h    i
        001006d2 69              ??         69h    i
        001006d3 0d              ??         0Dh
        001006d4 00              ??         00h
        001006d5 00              ??         00h
        001006d6 06              ??         06h
        001006d7 00              ??         00h
        001006d8 8a              ??         8Ah
        001006d9 00              ??         00h
        001006da 00              ??         00h
        001006db 00              ??         00h
        001006dc 10              ??         10h
        001006dd 00              ??         00h
        001006de 00              ??         00h
        001006df 00              ??         00h
        001006e0 b3              ??         B3h
        001006e1 91              ??         91h
        001006e2 96              ??         96h
        001006e3 06              ??         06h
        001006e4 00              ??         00h
        001006e5 00              ??         00h
        001006e6 05              ??         05h
        001006e7 00              ??         00h
        001006e8 94              ??         94h
        001006e9 00              ??         00h
        001006ea 00              ??         00h
        001006eb 00              ??         00h
        001006ec 10              ??         10h
        001006ed 00              ??         00h
        001006ee 00              ??         00h
        001006ef 00              ??         00h
        001006f0 14              ??         14h
        001006f1 69              ??         69h    i
        001006f2 69              ??         69h    i
        001006f3 0d              ??         0Dh
        001006f4 00              ??         00h
        001006f5 00              ??         00h
        001006f6 04              ??         04h
        001006f7 00              ??         00h
        001006f8 9f              ??         9Fh
        001006f9 00              ??         00h
        001006fa 00              ??         00h
        001006fb 00              ??         00h
        001006fc 10              ??         10h
        001006fd 00              ??         00h
        001006fe 00              ??         00h
        001006ff 00              ??         00h
        00100700 75              ??         75h    u
        00100701 1a              ??         1Ah
        00100702 69              ??         69h    i
        00100703 09              ??         09h
        00100704 00              ??         00h
        00100705 00              ??         00h
        00100706 03              ??         03h
        00100707 00              ??         00h
        00100708 a9              ??         A9h
        00100709 00              ??         00h
        0010070a 00              ??         00h
        0010070b 00              ??         00h
        0010070c 10              ??         10h
        0010070d 00              ??         00h
        0010070e 00              ??         00h
        0010070f 00              ??         00h
        00100710 b4              ??         B4h
        00100711 91              ??         91h
        00100712 96              ??         96h
        00100713 06              ??         06h
        00100714 00              ??         00h
        00100715 00              ??         00h
        00100716 02              ??         02h
        00100717 00              ??         00h
        00100718 b5              ??         B5h
        00100719 00              ??         00h
        0010071a 00              ??         00h
        0010071b 00              ??         00h
        0010071c 00              ??         00h
        0010071d 00              ??         00h
        0010071e 00              ??         00h
        0010071f 00              ??         00h
                             //
                             // .rela.dyn 
                             // SHT_RELA  [0x720 - 0x80f]
                             // ram:00100720-ram:0010080f
                             //
                             __DT_RELA                                       XREF[2]:     00103e98(*), 00105110(*)  
        00100720 60 3d 00        Elf64_Re                                                    location to apply the relocation
                 00 00 00 
                 00 00 08 
                             //
                             // .rela.plt 
                             // SHT_RELA  [0x810 - 0x8ff]
                             // ram:00100810-ram:001008ff
                             //
                             __DT_JMPREL                                     XREF[2]:     00103e88(*), 00105150(*)  
        00100810 88 3f 00        Elf64_Re                                                    location to apply the relocation
                 00 00 00 
                 00 00 07 
                             //
                             // .init 
                             // SHT_PROGBITS  [0x1000 - 0x101a]
                             // ram:00101000-ram:0010101a
                             //
                             **************************************************************
                             *                          FUNCTION                          *
                             **************************************************************
                             int __stdcall _init(EVP_PKEY_CTX * ctx)
             int               EAX:4          <RETURN>
             EVP_PKEY_CTX *    RDI:8          ctx
                             __DT_INIT                                       XREF[4]:     Entry Point(*), 001000f8(*), 
                             _init                                                        00103d98(*), 00105190(*)  
        00101000 f3 0f 1e fa     ENDBR64
        00101004 48 83 ec 08     SUB        RSP,0x8
        00101008 48 8b 05        MOV        RAX=><EXTERNAL>::__gmon_start__,qword ptr [-><   = ??
                 d9 2f 00 00                                                                 = 00106038
        0010100f 48 85 c0        TEST       RAX,RAX
        00101012 74 02           JZ         LAB_00101016
        00101014 ff d0           CALL       RAX=><EXTERNAL>::__gmon_start__                  undefined __gmon_start__()
                             LAB_00101016                                    XREF[1]:     00101012(j)  
        00101016 48 83 c4 08     ADD        RSP,0x8
        0010101a c3              RET
                             //
                             // .plt 
                             // SHT_PROGBITS  [0x1020 - 0x10cf]
                             // ram:00101020-ram:001010cf
                             //
                             **************************************************************
                             *                          FUNCTION                          *
                             **************************************************************
                             undefined FUN_00101020()
             undefined         <UNASSIGNED>   <RETURN>
                             FUN_00101020                                    XREF[13]:    00101039(c), 00101049(c), 
                                                                                          00101059(c), 00101069(c), 
                                                                                          00101079(c), 00101089(c), 
                                                                                          00101099(c), 001010a9(c), 
                                                                                          001010b9(c), 001010c9(c), 
                                                                                          0010227c, 001022f8(*), 
                                                                                          001051d0(*)  
        00101020 ff 35 52        PUSH       qword ptr [PTR_00103f78]                         = 00000000
                 2f 00 00
        00101026 ff 25 54        JMP        qword ptr [PTR_00103f80]
                 2f 00 00
        0010102c 0f              ??         0Fh
        0010102d 1f              ??         1Fh
        0010102e 40              ??         40h    @
        0010102f 00              ??         00h
        00101030 f3 0f 1e fa     ENDBR64
        00101034 68 00 00        PUSH       0x0
                 00 00
        00101039 e9 e2 ff        JMP        FUN_00101020                                     undefined FUN_00101020()
                 ff ff
                             -- Flow Override: CALL_RETURN (CALL_TERMINATOR)
        0010103e 66 90           NOP
        00101040 f3 0f 1e fa     ENDBR64
        00101044 68 01 00        PUSH       0x1
                 00 00
        00101049 e9 d2 ff        JMP        FUN_00101020                                     undefined FUN_00101020()
                 ff ff
                             -- Flow Override: CALL_RETURN (CALL_TERMINATOR)
        0010104e 66 90           NOP
        00101050 f3 0f 1e fa     ENDBR64
        00101054 68 02 00        PUSH       0x2
                 00 00
        00101059 e9 c2 ff        JMP        FUN_00101020                                     undefined FUN_00101020()
                 ff ff
                             -- Flow Override: CALL_RETURN (CALL_TERMINATOR)
        0010105e 66 90           NOP
        00101060 f3 0f 1e fa     ENDBR64
        00101064 68 03 00        PUSH       0x3
                 00 00
        00101069 e9 b2 ff        JMP        FUN_00101020                                     undefined FUN_00101020()
                 ff ff
                             -- Flow Override: CALL_RETURN (CALL_TERMINATOR)
        0010106e 66 90           NOP
        00101070 f3 0f 1e fa     ENDBR64
        00101074 68 04 00        PUSH       0x4
                 00 00
        00101079 e9 a2 ff        JMP        FUN_00101020                                     undefined FUN_00101020()
                 ff ff
                             -- Flow Override: CALL_RETURN (CALL_TERMINATOR)
        0010107e 66 90           NOP
        00101080 f3 0f 1e fa     ENDBR64
        00101084 68 05 00        PUSH       0x5
                 00 00
        00101089 e9 92 ff        JMP        FUN_00101020                                     undefined FUN_00101020()
                 ff ff
                             -- Flow Override: CALL_RETURN (CALL_TERMINATOR)
        0010108e 66 90           NOP
        00101090 f3 0f 1e fa     ENDBR64
        00101094 68 06 00        PUSH       0x6
                 00 00
        00101099 e9 82 ff        JMP        FUN_00101020                                     undefined FUN_00101020()
                 ff ff
                             -- Flow Override: CALL_RETURN (CALL_TERMINATOR)
        0010109e 66 90           NOP
        001010a0 f3 0f 1e fa     ENDBR64
        001010a4 68 07 00        PUSH       0x7
                 00 00
        001010a9 e9 72 ff        JMP        FUN_00101020                                     undefined FUN_00101020()
                 ff ff
                             -- Flow Override: CALL_RETURN (CALL_TERMINATOR)
        001010ae 66 90           NOP
        001010b0 f3 0f 1e fa     ENDBR64
        001010b4 68 08 00        PUSH       0x8
                 00 00
        001010b9 e9 62 ff        JMP        FUN_00101020                                     undefined FUN_00101020()
                 ff ff
                             -- Flow Override: CALL_RETURN (CALL_TERMINATOR)
        001010be 66 90           NOP
        001010c0 f3 0f 1e fa     ENDBR64
        001010c4 68 09 00        PUSH       0x9
                 00 00
        001010c9 e9 52 ff        JMP        FUN_00101020                                     undefined FUN_00101020()
                 ff ff
                             -- Flow Override: CALL_RETURN (CALL_TERMINATOR)
        001010ce 66 90           NOP
                             //
                             // .plt.got 
                             // SHT_PROGBITS  [0x10d0 - 0x10df]
                             // ram:001010d0-ram:001010df
                             //
                             **************************************************************
                             *                          FUNCTION                          *
                             **************************************************************
                             undefined FUN_001010d0()
             undefined         <UNASSIGNED>   <RETURN>
                             FUN_001010d0                                    XREF[4]:     __do_global_dtors_aux:00101242(c
                                                                                          00102284, 00102320(*), 
                                                                                          00105210(*)  
        001010d0 f3 0f 1e fa     ENDBR64
        001010d4 ff 25 1e        JMP        qword ptr [-><EXTERNAL>::__cxa_finalize]         undefined __cxa_finalize()
                 2f 00 00
                             -- Flow Override: CALL_RETURN (COMPUTED_CALL_TERMINATOR)
        001010da 66              ??         66h    f
        001010db 0f              ??         0Fh
        001010dc 1f              ??         1Fh
        001010dd 44              ??         44h    D
        001010de 00              ??         00h
        001010df 00              ??         00h
                             //
                             // .plt.sec 
                             // SHT_PROGBITS  [0x10e0 - 0x117f]
                             // ram:001010e0-ram:0010117f
                             //
                             **************************************************************
                             *                       THUNK FUNCTION                       *
                             **************************************************************
                             thunk int puts(char * __s)
                               Thunked-Function: <EXTERNAL>::puts
             int               EAX:4          <RETURN>
             char *            RDI:8          __s
                             <EXTERNAL>::puts                                XREF[10]:    setup:001012b7(c), 
                                                                                          warp_jump:00101304(c), 
                                                                                          warp_jump:0010131d(c), 
                                                                                          warp_jump:0010132c(c), 
                                                                                          warp_jump:00101365(c), 
                                                                                          space_hint:001013d2(c), 
                                                                                          main:001014d0(c), 0010228c, 
                                                                                          00102338(*), 00105250(*)  
        001010e0 f3 0f 1e fa     ENDBR64
        001010e4 ff 25 9e        JMP        qword ptr [-><EXTERNAL>::puts]                   int puts(char * __s)
                 2e 00 00
                             -- Flow Override: CALL_RETURN (COMPUTED_CALL_TERMINATOR)
        001010ea 66              ??         66h    f
        001010eb 0f              ??         0Fh
        001010ec 1f              ??         1Fh
        001010ed 44              ??         44h    D
        001010ee 00              ??         00h
        001010ef 00              ??         00h
                             **************************************************************
                             *                       THUNK FUNCTION                       *
                             **************************************************************
                             thunk int fclose(FILE * __stream)
                               Thunked-Function: <EXTERNAL>::fclose
             int               EAX:4          <RETURN>
             FILE *            RDI:8          __stream
                             <EXTERNAL>::fclose                              XREF[1]:     warp_jump:001013b1(c)  
        001010f0 f3 0f 1e fa     ENDBR64
        001010f4 ff 25 96        JMP        qword ptr [-><EXTERNAL>::fclose]                 int fclose(FILE * __stream)
                 2e 00 00
                             -- Flow Override: CALL_RETURN (COMPUTED_CALL_TERMINATOR)
        001010fa 66              ??         66h    f
        001010fb 0f              ??         0Fh
        001010fc 1f              ??         1Fh
        001010fd 44              ??         44h    D
        001010fe 00              ??         00h
        001010ff 00              ??         00h
                             **************************************************************
                             *                       THUNK FUNCTION                       *
                             **************************************************************
                             thunk noreturn undefined __stack_chk_fail()
                               Thunked-Function: <EXTERNAL>::__stack_chk
             undefined         <UNASSIGNED>   <RETURN>
                             <EXTERNAL>::__stack_chk_fail                    XREF[1]:     main:001014e9(c)  
        00101100 f3 0f 1e fa     ENDBR64
        00101104 ff 25 8e        JMP        qword ptr [-><EXTERNAL>::__stack_chk_fail]       undefined __stack_chk_fail()
                 2e 00 00
                             -- Flow Override: CALL_RETURN (COMPUTED_CALL_TERMINATOR)
        0010110a 66              ??         66h    f
        0010110b 0f              ??         0Fh
        0010110c 1f              ??         1Fh
        0010110d 44              ??         44h    D
        0010110e 00              ??         00h
        0010110f 00              ??         00h
                             **************************************************************
                             *                       THUNK FUNCTION                       *
                             **************************************************************
                             thunk int printf(char * __format, ...)
                               Thunked-Function: <EXTERNAL>::printf
             int               EAX:4          <RETURN>
             char *            RDI:8          __format
                             <EXTERNAL>::printf                              XREF[4]:     warp_jump:001013a2(c), 
                                                                                          main:0010142f(c), 
                                                                                          main:00101499(c), 
                                                                                          main:001014c1(c)  
        00101110 f3 0f 1e fa     ENDBR64
        00101114 ff 25 86        JMP        qword ptr [-><EXTERNAL>::printf]                 int printf(char * __format, ...)
                 2e 00 00
                             -- Flow Override: CALL_RETURN (COMPUTED_CALL_TERMINATOR)
        0010111a 66              ??         66h    f
        0010111b 0f              ??         0Fh
        0010111c 1f              ??         1Fh
        0010111d 44              ??         44h    D
        0010111e 00              ??         00h
        0010111f 00              ??         00h
                             **************************************************************
                             *                       THUNK FUNCTION                       *
                             **************************************************************
                             thunk char * fgets(char * __s, int __n, FILE * __stream)
                               Thunked-Function: <EXTERNAL>::fgets
             char *            RAX:8          <RETURN>
             char *            RDI:8          __s
             int               ESI:4          __n
             FILE *            RDX:8          __stream
                             <EXTERNAL>::fgets                               XREF[1]:     warp_jump:00101387(c)  
        00101120 f3 0f 1e fa     ENDBR64
        00101124 ff 25 7e        JMP        qword ptr [-><EXTERNAL>::fgets]                  char * fgets(char * __s, int __n
                 2e 00 00
                             -- Flow Override: CALL_RETURN (COMPUTED_CALL_TERMINATOR)
        0010112a 66              ??         66h    f
        0010112b 0f              ??         0Fh
        0010112c 1f              ??         1Fh
        0010112d 44              ??         44h    D
        0010112e 00              ??         00h
        0010112f 00              ??         00h
                             **************************************************************
                             *                       THUNK FUNCTION                       *
                             **************************************************************
                             thunk int stat(char * __file, stat * __buf)
                               Thunked-Function: <EXTERNAL>::stat
             int               EAX:4          <RETURN>
             char *            RDI:8          __file
             stat *            RSI:8          __buf
                             <EXTERNAL>::stat                                XREF[1]:     warp_jump:001012f1(c)  
        00101130 f3 0f 1e fa     ENDBR64
        00101134 ff 25 76        JMP        qword ptr [-><EXTERNAL>::stat]                   int stat(char * __file, stat * _
                 2e 00 00
                             -- Flow Override: CALL_RETURN (COMPUTED_CALL_TERMINATOR)
        0010113a 66              ??         66h    f
        0010113b 0f              ??         0Fh
        0010113c 1f              ??         1Fh
        0010113d 44              ??         44h    D
        0010113e 00              ??         00h
        0010113f 00              ??         00h
                             **************************************************************
                             *                       THUNK FUNCTION                       *
                             **************************************************************
                             thunk int setvbuf(FILE * __stream, char * __buf, int __m
                               Thunked-Function: <EXTERNAL>::setvbuf
             int               EAX:4          <RETURN>
             FILE *            RDI:8          __stream
             char *            RSI:8          __buf
             int               EDX:4          __modes
             size_t            RCX:8          __n
                             <EXTERNAL>::setvbuf                             XREF[2]:     setup:0010128a(c), 
                                                                                          setup:001012a8(c)  
        00101140 f3 0f 1e fa     ENDBR64
        00101144 ff 25 6e        JMP        qword ptr [-><EXTERNAL>::setvbuf]                int setvbuf(FILE * __stream, cha
                 2e 00 00
                             -- Flow Override: CALL_RETURN (COMPUTED_CALL_TERMINATOR)
        0010114a 66              ??         66h    f
        0010114b 0f              ??         0Fh
        0010114c 1f              ??         1Fh
        0010114d 44              ??         44h    D
        0010114e 00              ??         00h
        0010114f 00              ??         00h
                             **************************************************************
                             *                       THUNK FUNCTION                       *
                             **************************************************************
                             thunk FILE * fopen(char * __filename, char * __modes)
                               Thunked-Function: <EXTERNAL>::fopen
             FILE *            RAX:8          <RETURN>
             char *            RDI:8          __filename
             char *            RSI:8          __modes
                             <EXTERNAL>::fopen                               XREF[1]:     warp_jump:00101345(c)  
        00101150 f3 0f 1e fa     ENDBR64
        00101154 ff 25 66        JMP        qword ptr [-><EXTERNAL>::fopen]                  FILE * fopen(char * __filename, 
                 2e 00 00
                             -- Flow Override: CALL_RETURN (COMPUTED_CALL_TERMINATOR)
        0010115a 66              ??         66h    f
        0010115b 0f              ??         0Fh
        0010115c 1f              ??         1Fh
        0010115d 44              ??         44h    D
        0010115e 00              ??         00h
        0010115f 00              ??         00h
                             **************************************************************
                             *                       THUNK FUNCTION                       *
                             **************************************************************
                             thunk undefined __isoc99_scanf()
                               Thunked-Function: <EXTERNAL>::__isoc99_sc
             undefined         <UNASSIGNED>   <RETURN>
                             <EXTERNAL>::__isoc99_scanf                      XREF[1]:     main:0010144a(c)  
        00101160 f3 0f 1e fa     ENDBR64
        00101164 ff 25 5e        JMP        qword ptr [-><EXTERNAL>::__isoc99_scanf]         undefined __isoc99_scanf()
                 2e 00 00
                             -- Flow Override: CALL_RETURN (COMPUTED_CALL_TERMINATOR)
        0010116a 66              ??         66h    f
        0010116b 0f              ??         0Fh
        0010116c 1f              ??         1Fh
        0010116d 44              ??         44h    D
        0010116e 00              ??         00h
        0010116f 00              ??         00h
                             **************************************************************
                             *                       THUNK FUNCTION                       *
                             **************************************************************
                             thunk noreturn void exit(int __status)
                               Thunked-Function: <EXTERNAL>::exit
             void              <VOID>         <RETURN>
             int               EDI:4          __status
                             <EXTERNAL>::exit                                XREF[3]:     warp_jump:0010130e(c), 
                                                                                          warp_jump:0010136f(c), 
                                                                                          warp_jump:001013bb(c)  
        00101170 f3 0f 1e fa     ENDBR64
        00101174 ff 25 56        JMP        qword ptr [-><EXTERNAL>::exit]                   void exit(int __status)
                 2e 00 00
                             -- Flow Override: CALL_RETURN (COMPUTED_CALL_TERMINATOR)
        0010117a 66              ??         66h    f
        0010117b 0f              ??         0Fh
        0010117c 1f              ??         1Fh
        0010117d 44              ??         44h    D
        0010117e 00              ??         00h
        0010117f 00              ??         00h
                             //
                             // .text 
                             // SHT_PROGBITS  [0x1180 - 0x14ef]
                             // ram:00101180-ram:001014ef
                             //
                             **************************************************************
                             *                          FUNCTION                          *
                             **************************************************************
                             undefined processEntry _start()
             undefined         <UNASSIGNED>   <RETURN>
             undefined8        Stack[-0x10]:8 local_10                                XREF[1]:     00101192(*)  
                             _start                                          XREF[5]:     Entry Point(*), 00100018(*), 
                                                                                          00102294, 001022e0(*), 
                                                                                          00105290(*)  
        00101180 f3 0f 1e fa     ENDBR64
        00101184 31 ed           XOR        EBP,EBP
        00101186 49 89 d1        MOV        R9,RDX
        00101189 5e              POP        RSI
        0010118a 48 89 e2        MOV        RDX,RSP
        0010118d 48 83 e4 f0     AND        RSP,-0x10
        00101191 50              PUSH       RAX
        00101192 54              PUSH       RSP=>local_10
        00101193 45 31 c0        XOR        R8D,R8D
        00101196 31 c9           XOR        ECX,ECX
        00101198 48 8d 3d        LEA        RDI,[main]
                 3b 02 00 00
        0010119f ff 15 33        CALL       qword ptr [-><EXTERNAL>::__libc_start_main]      undefined __libc_start_main()
                 2e 00 00                                                                    = 00106078
        001011a5 f4              HLT
        001011a6 66              ??         66h    f
        001011a7 2e              ??         2Eh    .
        001011a8 0f              ??         0Fh
        001011a9 1f              ??         1Fh
        001011aa 84              ??         84h
        001011ab 00              ??         00h
        001011ac 00              ??         00h
        001011ad 00              ??         00h
        001011ae 00              ??         00h
        001011af 00              ??         00h
                             **************************************************************
                             *                          FUNCTION                          *
                             **************************************************************
                             undefined deregister_tm_clones()
             undefined         <UNASSIGNED>   <RETURN>
                             deregister_tm_clones                            XREF[1]:     __do_global_dtors_aux:00101247(c
        001011b0 48 8d 3d        LEA        RDI,[stdout]
                 59 2e 00 00
        001011b7 48 8d 05        LEA        RAX,[stdout]
                 52 2e 00 00
        001011be 48 39 f8        CMP        RAX,RDI
        001011c1 74 15           JZ         LAB_001011d8
        001011c3 48 8b 05        MOV        RAX=><EXTERNAL>::_ITM_deregisterTMCloneTable,q   = ??
                 16 2e 00 00                                                                 = 00106008
        001011ca 48 85 c0        TEST       RAX,RAX
        001011cd 74 09           JZ         LAB_001011d8
        001011cf ff e0           JMP        RAX=><EXTERNAL>::_ITM_deregisterTMCloneTable     undefined _ITM_deregisterTMClone
                             -- Flow Override: CALL_RETURN (COMPUTED_CALL_TERMINATOR)
        001011d1 0f              ??         0Fh
        001011d2 1f              ??         1Fh
        001011d3 80              ??         80h
        001011d4 00              ??         00h
        001011d5 00              ??         00h
        001011d6 00              ??         00h
        001011d7 00              ??         00h
                             LAB_001011d8                                    XREF[2]:     001011c1(j), 001011cd(j)  
        001011d8 c3              RET
        001011d9 0f              ??         0Fh
        001011da 1f              ??         1Fh
        001011db 80              ??         80h
        001011dc 00              ??         00h
        001011dd 00              ??         00h
        001011de 00              ??         00h
        001011df 00              ??         00h
                             **************************************************************
                             *                          FUNCTION                          *
                             **************************************************************
                             undefined register_tm_clones()
             undefined         <UNASSIGNED>   <RETURN>
                             register_tm_clones                              XREF[1]:     frame_dummy:00101260(T), 
                                                                                          frame_dummy:00101264(c)  
        001011e0 48 8d 3d        LEA        RDI,[stdout]
                 29 2e 00 00
        001011e7 48 8d 35        LEA        RSI,[stdout]
                 22 2e 00 00
        001011ee 48 29 fe        SUB        RSI,RDI
        001011f1 48 89 f0        MOV        RAX,RSI
        001011f4 48 c1 ee 3f     SHR        RSI,0x3f
        001011f8 48 c1 f8 03     SAR        RAX,0x3
        001011fc 48 01 c6        ADD        RSI,RAX
        001011ff 48 d1 fe        SAR        RSI,0x1
        00101202 74 14           JZ         LAB_00101218
        00101204 48 8b 05        MOV        RAX=><EXTERNAL>::_ITM_registerTMCloneTable,qwo   = ??
                 e5 2d 00 00                                                                 = 00106068
        0010120b 48 85 c0        TEST       RAX,RAX
        0010120e 74 08           JZ         LAB_00101218
        00101210 ff e0           JMP        RAX=><EXTERNAL>::_ITM_registerTMCloneTable       undefined _ITM_registerTMCloneTa
                             -- Flow Override: CALL_RETURN (COMPUTED_CALL_TERMINATOR)
        00101212 66              ??         66h    f
        00101213 0f              ??         0Fh
        00101214 1f              ??         1Fh
        00101215 44              ??         44h    D
        00101216 00              ??         00h
        00101217 00              ??         00h
                             LAB_00101218                                    XREF[2]:     00101202(j), 0010120e(j)  
        00101218 c3              RET
        00101219 0f              ??         0Fh
        0010121a 1f              ??         1Fh
        0010121b 80              ??         80h
        0010121c 00              ??         00h
        0010121d 00              ??         00h
        0010121e 00              ??         00h
        0010121f 00              ??         00h
                             **************************************************************
                             *                          FUNCTION                          *
                             **************************************************************
                             undefined __do_global_dtors_aux()
             undefined         <UNASSIGNED>   <RETURN>
                             __do_global_dtors_aux                           XREF[2]:     Entry Point(*), 00103d68(*)  
        00101220 f3 0f 1e fa     ENDBR64
        00101224 80 3d fd        CMP        byte ptr [completed.0],0x0
                 2d 00 00 00
        0010122b 75 2b           JNZ        LAB_00101258
        0010122d 55              PUSH       RBP
        0010122e 48 83 3d        CMP        qword ptr [-><EXTERNAL>::__cxa_finalize],0x0     = 001060d0
                 c2 2d 00 
                 00 00
        00101236 48 89 e5        MOV        RBP,RSP
        00101239 74 0c           JZ         LAB_00101247
        0010123b 48 8b 3d        MOV        RDI,qword ptr [->__dso_handle]                   = 00104008
                 c6 2d 00 00
        00101242 e8 89 fe        CALL       FUN_001010d0                                     undefined FUN_001010d0()
                 ff ff
                             LAB_00101247                                    XREF[1]:     00101239(j)  
        00101247 e8 64 ff        CALL       deregister_tm_clones                             undefined deregister_tm_clones()
                 ff ff
        0010124c c6 05 d5        MOV        byte ptr [completed.0],0x1
                 2d 00 00 01
        00101253 5d              POP        RBP
        00101254 c3              RET
        00101255 0f              ??         0Fh
        00101256 1f              ??         1Fh
        00101257 00              ??         00h
                             LAB_00101258                                    XREF[1]:     0010122b(j)  
        00101258 c3              RET
        00101259 0f              ??         0Fh
        0010125a 1f              ??         1Fh
        0010125b 80              ??         80h
        0010125c 00              ??         00h
        0010125d 00              ??         00h
        0010125e 00              ??         00h
        0010125f 00              ??         00h
                             **************************************************************
                             *                       THUNK FUNCTION                       *
                             **************************************************************
                             thunk undefined frame_dummy()
                               Thunked-Function: register_tm_clones
             undefined         <UNASSIGNED>   <RETURN>
                             frame_dummy                                     XREF[2]:     Entry Point(*), 00103d60(*)  
        00101260 f3 0f 1e fa     ENDBR64
        00101264 e9 77 ff        JMP        register_tm_clones                               undefined register_tm_clones()
                 ff ff
                             -- Flow Override: CALL_RETURN (CALL_TERMINATOR)
                             **************************************************************
                             *                          FUNCTION                          *
                             **************************************************************
                             undefined setup()
             undefined         <UNASSIGNED>   <RETURN>
                             setup                                           XREF[4]:     Entry Point(*), main:00101411(c), 
                                                                                          0010229c, 00102350(*)  
        00101269 f3 0f 1e fa     ENDBR64
        0010126d 55              PUSH       RBP
        0010126e 48 89 e5        MOV        RBP,RSP
        00101271 48 8b 05        MOV        RAX,qword ptr [stdin]
                 a8 2d 00 00
        00101278 b9 00 00        MOV        ECX,0x0
                 00 00
        0010127d ba 02 00        MOV        EDX,0x2
                 00 00
        00101282 be 00 00        MOV        ESI,0x0
                 00 00
        00101287 48 89 c7        MOV        RDI,RAX
        0010128a e8 b1 fe        CALL       <EXTERNAL>::setvbuf                              int setvbuf(FILE * __stream, cha
                 ff ff
        0010128f 48 8b 05        MOV        RAX,qword ptr [stdout]
                 7a 2d 00 00
        00101296 b9 00 00        MOV        ECX,0x0
                 00 00
        0010129b ba 02 00        MOV        EDX,0x2
                 00 00
        001012a0 be 00 00        MOV        ESI,0x0
                 00 00
        001012a5 48 89 c7        MOV        RDI,RAX
        001012a8 e8 93 fe        CALL       <EXTERNAL>::setvbuf                              int setvbuf(FILE * __stream, cha
                 ff ff
        001012ad 48 8d 05        LEA        RAX,[s_Warp_console_online:_Real-time_c_001020   = "Warp console online: Real-tim
                 54 0d 00 00
        001012b4 48 89 c7        MOV        RDI=>s_Warp_console_online:_Real-time_c_001020   = "Warp console online: Real-tim
        001012b7 e8 24 fe        CALL       <EXTERNAL>::puts                                 int puts(char * __s)
                 ff ff
        001012bc 90              NOP
        001012bd 5d              POP        RBP
        001012be c3              RET
                             **************************************************************
                             *                          FUNCTION                          *
                             **************************************************************
                             undefined warp_jump()
             undefined         <UNASSIGNED>   <RETURN>
             undefined8        Stack[-0x10]:8 local_10                                XREF[1]:     001012d7(W)  
             undefined1        Stack[-0x58]:1 local_58                                XREF[2]:     0010137b(*), 
                                                                                                   0010138c(*)  
             undefined1        Stack[-0xe8]:1 local_e8                                XREF[1]:     001012dd(*)  
             undefined8        Stack[-0xf0]:8 local_f0                                XREF[4]:     0010134a(W), 
                                                                                                   00101351(R), 
                                                                                                   00101374(R), 
                                                                                                   001013a7(R)  
                             warp_jump                                       XREF[3]:     Entry Point(*), 001022a4, 
                                                                                          00102370(*)  
        001012bf f3 0f 1e fa     ENDBR64
        001012c3 55              PUSH       RBP
        001012c4 48 89 e5        MOV        RBP,RSP
        001012c7 48 81 ec        SUB        RSP,0xf0
                 f0 00 00 00
        001012ce 64 48 8b        MOV        RAX,qword ptr FS:[0x28]
                 04 25 28 
                 00 00 00
        001012d7 48 89 45 f8     MOV        qword ptr [RBP + local_10],RAX
        001012db 31 c0           XOR        EAX,EAX
        001012dd 48 8d 85        LEA        RAX=>local_e8,[RBP + -0xe0]
                 20 ff ff ff
        001012e4 48 89 c6        MOV        RSI,RAX
        001012e7 48 8d 05        LEA        RAX,[s_./flag.txt_00102049]                      = "./flag.txt"
                 5b 0d 00 00
        001012ee 48 89 c7        MOV        RDI=>s_./flag.txt_00102049,RAX                   = "./flag.txt"
        001012f1 e8 3a fe        CALL       <EXTERNAL>::stat                                 int stat(char * __file, stat * _
                 ff ff
        001012f6 85 c0           TEST       EAX,EAX
        001012f8 74 19           JZ         LAB_00101313
        001012fa 48 8d 05        LEA        RAX,[s_Warp_jump_aborted:_flag_file_not_001020   = "Warp jump aborted: flag file 
                 57 0d 00 00
        00101301 48 89 c7        MOV        RDI=>s_Warp_jump_aborted:_flag_file_not_001020   = "Warp jump aborted: flag file 
        00101304 e8 d7 fd        CALL       <EXTERNAL>::puts                                 int puts(char * __s)
                 ff ff
        00101309 bf 01 00        MOV        EDI,0x1
                 00 00
        0010130e e8 5d fe        CALL       <EXTERNAL>::exit                                 void exit(int __status)
                 ff ff
                             -- Flow Override: CALL_RETURN (CALL_TERMINATOR)
                             LAB_00101313                                    XREF[1]:     001012f8(j)  
        00101313 48 8d 05        LEA        RAX,[s_Warp_drive_recalibrated._Wormhol_001020   = "Warp drive recalibrated. Worm
                 86 0d 00 00
        0010131a 48 89 c7        MOV        RDI=>s_Warp_drive_recalibrated._Wormhol_001020   = "Warp drive recalibrated. Worm
        0010131d e8 be fd        CALL       <EXTERNAL>::puts                                 int puts(char * __s)
                 ff ff
        00101322 48 8d 05        LEA        RAX,[s_Initiating_warp_jump..._001020d6]         = "Initiating warp jump..."
                 ad 0d 00 00
        00101329 48 89 c7        MOV        RDI=>s_Initiating_warp_jump..._001020d6,RAX      = "Initiating warp jump..."
        0010132c e8 af fd        CALL       <EXTERNAL>::puts                                 int puts(char * __s)
                 ff ff
        00101331 48 8d 05        LEA        RAX,[DAT_001020ee]                               = 72h    r
                 b6 0d 00 00
        00101338 48 89 c6        MOV        RSI=>DAT_001020ee,RAX                            = 72h    r
        0010133b 48 8d 05        LEA        RAX,[s_./flag.txt_00102049]                      = "./flag.txt"
                 07 0d 00 00
        00101342 48 89 c7        MOV        RDI=>s_./flag.txt_00102049,RAX                   = "./flag.txt"
        00101345 e8 06 fe        CALL       <EXTERNAL>::fopen                                FILE * fopen(char * __filename, 
                 ff ff
        0010134a 48 89 85        MOV        qword ptr [RBP + local_f0],RAX
                 18 ff ff ff
        00101351 48 83 bd        CMP        qword ptr [RBP + local_f0],0x0
                 18 ff ff 
                 ff 00
        00101359 75 19           JNZ        LAB_00101374
        0010135b 48 8d 05        LEA        RAX,[s_Error_opening_flag_file!_001020f0]        = "Error opening flag file!"
                 8e 0d 00 00
        00101362 48 89 c7        MOV        RDI=>s_Error_opening_flag_file!_001020f0,RAX     = "Error opening flag file!"
        00101365 e8 76 fd        CALL       <EXTERNAL>::puts                                 int puts(char * __s)
                 ff ff
        0010136a bf 01 00        MOV        EDI,0x1
                 00 00
        0010136f e8 fc fd        CALL       <EXTERNAL>::exit                                 void exit(int __status)
                 ff ff
                             -- Flow Override: CALL_RETURN (CALL_TERMINATOR)
                             LAB_00101374                                    XREF[1]:     00101359(j)  
        00101374 48 8b 95        MOV        RDX,qword ptr [RBP + local_f0]
                 18 ff ff ff
        0010137b 48 8d 45 b0     LEA        RAX=>local_58,[RBP + -0x50]
        0010137f be 40 00        MOV        ESI,0x40
                 00 00
        00101384 48 89 c7        MOV        RDI,RAX
        00101387 e8 94 fd        CALL       <EXTERNAL>::fgets                                char * fgets(char * __s, int __n
                 ff ff
        0010138c 48 8d 45 b0     LEA        RAX=>local_58,[RBP + -0x50]
        00101390 48 89 c6        MOV        RSI,RAX
        00101393 48 8d 05        LEA        RAX,[s_flag:_%s_00102109]                        = "flag: %s\n"
                 6f 0d 00 00
        0010139a 48 89 c7        MOV        RDI=>s_flag:_%s_00102109,RAX                     = "flag: %s\n"
        0010139d b8 00 00        MOV        EAX,0x0
                 00 00
        001013a2 e8 69 fd        CALL       <EXTERNAL>::printf                               int printf(char * __format, ...)
                 ff ff
        001013a7 48 8b 85        MOV        RAX,qword ptr [RBP + local_f0]
                 18 ff ff ff
        001013ae 48 89 c7        MOV        RDI,RAX
        001013b1 e8 3a fd        CALL       <EXTERNAL>::fclose                               int fclose(FILE * __stream)
                 ff ff
        001013b6 bf 00 00        MOV        EDI,0x0
                 00 00
        001013bb e8 b0 fd        CALL       <EXTERNAL>::exit                                 void exit(int __status)
                 ff ff
                             -- Flow Override: CALL_RETURN (CALL_TERMINATOR)
                             **************************************************************
                             *                          FUNCTION                          *
                             **************************************************************
                             undefined space_hint()
             undefined         <UNASSIGNED>   <RETURN>
                             space_hint                                      XREF[5]:     Entry Point(*), main:00101416(*), 
                                                                                          main:0010141d(*), 001022ac, 
                                                                                          0010238c(*)  
        001013c0 f3 0f 1e fa     ENDBR64
        001013c4 55              PUSH       RBP
        001013c5 48 89 e5        MOV        RBP,RSP
        001013c8 48 8d 05        LEA        RAX,[s_Close,_but_not_quite!_Adjust_you_001021   = "Close, but not quite! Adjust 
                 49 0d 00 00
        001013cf 48 89 c7        MOV        RDI=>s_Close,_but_not_quite!_Adjust_you_001021   = "Close, but not quite! Adjust 
        001013d2 e8 09 fd        CALL       <EXTERNAL>::puts                                 int puts(char * __s)
                 ff ff
        001013d7 90              NOP
        001013d8 5d              POP        RBP
        001013d9 c3              RET
                             **************************************************************
                             *                          FUNCTION                          *
                             **************************************************************
                             undefined main()
             undefined         <UNASSIGNED>   <RETURN>
             undefined8        Stack[-0x10]:8 local_10                                XREF[2]:     001013f6(W), 
                                                                                                   001014da(R)  
             undefined8        Stack[-0x18]:8 local_18                                XREF[7]:     001013fc(W), 
                                                                                                   00101404(W), 
                                                                                                   0010144f(R), 
                                                                                                   00101463(R), 
                                                                                                   00101483(R), 
                                                                                                   0010149e(R), 
                                                                                                   001014ab(R)  
             undefined1        Stack[-0x58]:1 local_58                                XREF[1]:     00101434(*)  
             undefined8        Stack[-0x60]:8 local_60                                XREF[2]:     00101467(W), 
                                                                                                   0010146b(R)  
             undefined8        Stack[-0x68]:8 local_68                                XREF[2]:     0010145f(W), 
                                                                                                   00101476(R)  
             undefined4        Stack[-0x6c]:4 local_6c                                XREF[1]:     001013e6(W)  
             undefined8        Stack[-0x78]:8 local_78                                XREF[1]:     001013e9(W)  
                             main                                            XREF[6]:     Entry Point(*), 
                                                                                          _start:00101198(*), 00101458(*), 
                                                                                          0010145f(*), 001022b4, 
                                                                                          001023ac(*)  
        001013da f3 0f 1e fa     ENDBR64
        001013de 55              PUSH       RBP
        001013df 48 89 e5        MOV        RBP,RSP
        001013e2 48 83 ec 70     SUB        RSP,0x70
        001013e6 89 7d 9c        MOV        dword ptr [RBP + local_6c],EDI
        001013e9 48 89 75 90     MOV        qword ptr [RBP + local_78],RSI
        001013ed 64 48 8b        MOV        RAX,qword ptr FS:[0x28]
                 04 25 28 
                 00 00 00
        001013f6 48 89 45 f8     MOV        qword ptr [RBP + local_10],RAX
        001013fa 31 c0           XOR        EAX,EAX
        001013fc 48 c7 45        MOV        qword ptr [RBP + local_18],0x0
                 f0 00 00 
                 00 00
        00101404 48 c7 45        MOV        qword ptr [RBP + local_18],0x0
                 f0 00 00 
                 00 00
        0010140c b8 00 00        MOV        EAX,0x0
                 00 00
        00101411 e8 53 fe        CALL       setup                                            undefined setup()
                 ff ff
        00101416 48 8d 05        LEA        RAX,[space_hint]
                 a3 ff ff ff
        0010141d 48 89 c6        MOV        RSI=>space_hint,RAX
        00101420 48 8d 05        LEA        RAX,[s_Star_Log:_Navigation_override_av_001021   = "Star Log: Navigation override
                 41 0d 00 00
        00101427 48 89 c7        MOV        RDI=>s_Star_Log:_Navigation_override_av_001021   = "Star Log: Navigation override
        0010142a b8 00 00        MOV        EAX,0x0
                 00 00
        0010142f e8 dc fc        CALL       <EXTERNAL>::printf                               int printf(char * __format, ...)
                 ff ff
        00101434 48 8d 45 b0     LEA        RAX=>local_58,[RBP + -0x50]
        00101438 48 89 c6        MOV        RSI,RAX
        0010143b 48 8d 05        LEA        RAX,[DAT_001021a8]                               = 25h    %
                 66 0d 00 00
        00101442 48 89 c7        MOV        RDI=>DAT_001021a8,RAX                            = 25h    %
        00101445 b8 00 00        MOV        EAX,0x0
                 00 00
        0010144a e8 11 fd        CALL       <EXTERNAL>::__isoc99_scanf                       undefined __isoc99_scanf()
                 ff ff
        0010144f 48 8b 45 f0     MOV        RAX,qword ptr [RBP + local_18]
        00101453 48 85 c0        TEST       RAX,RAX
        00101456 74 7d           JZ         LAB_001014d5
        00101458 48 8d 05        LEA        RAX,[main]
                 7b ff ff ff
        0010145f 48 89 45 a0     MOV        qword ptr [RBP + local_68],RAX=>main
        00101463 48 8b 45 f0     MOV        RAX,qword ptr [RBP + local_18]
        00101467 48 89 45 a8     MOV        qword ptr [RBP + local_60],RAX
        0010146b 48 8b 45 a8     MOV        RAX,qword ptr [RBP + local_60]
        0010146f 48 c1 e8 10     SHR        RAX,0x10
        00101473 48 89 c2        MOV        RDX,RAX
        00101476 48 8b 45 a0     MOV        RAX,qword ptr [RBP + local_68]
        0010147a 48 c1 e8 10     SHR        RAX,0x10
        0010147e 48 39 c2        CMP        RDX,RAX
        00101481 75 28           JNZ        LAB_001014ab
        00101483 48 8b 45 f0     MOV        RAX,qword ptr [RBP + local_18]
        00101487 48 89 c6        MOV        RSI,RAX
        0010148a 48 8d 05        LEA        RAX,[s_Engaging_function_pointer_at_%p._001021   = "Engaging function pointer at 
                 1f 0d 00 00
        00101491 48 89 c7        MOV        RDI=>s_Engaging_function_pointer_at_%p._001021   = "Engaging function pointer at 
        00101494 b8 00 00        MOV        EAX,0x0
                 00 00
        00101499 e8 72 fc        CALL       <EXTERNAL>::printf                               int printf(char * __format, ...)
                 ff ff
        0010149e 48 8b 55 f0     MOV        RDX,qword ptr [RBP + local_18]
        001014a2 b8 00 00        MOV        EAX,0x0
                 00 00
        001014a7 ff d2           CALL       RDX
        001014a9 eb 2a           JMP        LAB_001014d5
                             LAB_001014ab                                    XREF[1]:     00101481(j)  
        001014ab 48 8b 45 f0     MOV        RAX,qword ptr [RBP + local_18]
        001014af 48 89 c6        MOV        RSI,RAX
        001014b2 48 8d 05        LEA        RAX,[s_Navigation_Error:_Provided_addre_001021   = "Navigation Error: Provided ad
                 37 0d 00 00
        001014b9 48 89 c7        MOV        RDI=>s_Navigation_Error:_Provided_addre_001021   = "Navigation Error: Provided ad
        001014bc b8 00 00        MOV        EAX,0x0
                 00 00
        001014c1 e8 4a fc        CALL       <EXTERNAL>::printf                               int printf(char * __format, ...)
                 ff ff
        001014c6 48 8d 05        LEA        RAX,[s_Hint:_Redirect_to_a_valid_warp_r_001022   = "Hint: Redirect to a valid war
                 5b 0d 00 00
        001014cd 48 89 c7        MOV        RDI=>s_Hint:_Redirect_to_a_valid_warp_r_001022   = "Hint: Redirect to a valid war
        001014d0 e8 0b fc        CALL       <EXTERNAL>::puts                                 int puts(char * __s)
                 ff ff
                             LAB_001014d5                                    XREF[2]:     00101456(j), 001014a9(j)  
        001014d5 b8 00 00        MOV        EAX,0x0
                 00 00
        001014da 48 8b 55 f8     MOV        RDX,qword ptr [RBP + local_10]
        001014de 64 48 2b        SUB        RDX,qword ptr FS:[0x28]
                 14 25 28 
                 00 00 00
        001014e7 74 05           JZ         LAB_001014ee
        001014e9 e8 12 fc        CALL       <EXTERNAL>::__stack_chk_fail                     undefined __stack_chk_fail()
                 ff ff
                             -- Flow Override: CALL_RETURN (CALL_TERMINATOR)
                             LAB_001014ee                                    XREF[1]:     001014e7(j)  
        001014ee c9              LEAVE
        001014ef c3              RET
                             //
                             // .fini 
                             // SHT_PROGBITS  [0x14f0 - 0x14fc]
                             // ram:001014f0-ram:001014fc
                             //
                             **************************************************************
                             *                          FUNCTION                          *
                             **************************************************************
                             undefined _fini()
             undefined         <UNASSIGNED>   <RETURN>
                             __DT_FINI                                       XREF[3]:     Entry Point(*), 00103da8(*), 
                             _fini                                                        001052d0(*)  
        001014f0 f3 0f 1e fa     ENDBR64
        001014f4 48 83 ec 08     SUB        RSP,0x8
        001014f8 48 83 c4 08     ADD        RSP,0x8
        001014fc c3              RET
                             //
                             // .rodata 
                             // SHT_PROGBITS  [0x2000 - 0x226c]
                             // ram:00102000-ram:0010226c
                             //
                             _IO_stdin_used                                  XREF[3]:     Entry Point(*), 00100130(*), 
                                                                                          00105310(*)  
        00102000 01 00 02 00     undefined4 00020001h
        00102004 00              ??         00h
        00102005 00              ??         00h
        00102006 00              ??         00h
        00102007 00              ??         00h
                             s_Warp_console_online:_Real-time_c_00102008     XREF[2]:     setup:001012ad(*), 
                                                                                          setup:001012b4(*)  
        00102008 57 61 72        ds         "Warp console online: Real-time communication 
                 70 20 63 
                 6f 6e 73 
                             s_./flag.txt_00102049                           XREF[4]:     warp_jump:001012e7(*), 
                                                                                          warp_jump:001012ee(*), 
                                                                                          warp_jump:0010133b(*), 
                                                                                          warp_jump:00101342(*)  
        00102049 2e 2f 66        ds         "./flag.txt"
                 6c 61 67 
                 2e 74 78 
        00102054 00              ??         00h
        00102055 00              ??         00h
        00102056 00              ??         00h
        00102057 00              ??         00h
                             s_Warp_jump_aborted:_flag_file_not_00102058     XREF[2]:     warp_jump:001012fa(*), 
                                                                                          warp_jump:00101301(*)  
        00102058 57 61 72        ds         "Warp jump aborted: flag file not found! Check
                 70 20 6a 
                 75 6d 70 
        0010209a 00              ??         00h
        0010209b 00              ??         00h
        0010209c 00              ??         00h
        0010209d 00              ??         00h
        0010209e 00              ??         00h
        0010209f 00              ??         00h
                             s_Warp_drive_recalibrated._Wormhol_001020a0     XREF[2]:     warp_jump:00101313(*), 
                                                                                          warp_jump:0010131a(*)  
        001020a0 57 61 72        ds         "Warp drive recalibrated. Wormhole coordinates
                 70 20 64 
                 72 69 76 
                             s_Initiating_warp_jump..._001020d6              XREF[2]:     warp_jump:00101322(*), 
                                                                                          warp_jump:00101329(*)  
        001020d6 49 6e 69        ds         "Initiating warp jump..."
                 74 69 61 
                 74 69 6e 
                             DAT_001020ee                                    XREF[2]:     warp_jump:00101331(*), 
                                                                                          warp_jump:00101338(*)  
        001020ee 72              ??         72h    r
        001020ef 00              ??         00h
                             s_Error_opening_flag_file!_001020f0             XREF[2]:     warp_jump:0010135b(*), 
                                                                                          warp_jump:00101362(*)  
        001020f0 45 72 72        ds         "Error opening flag file!"
                 6f 72 20 
                 6f 70 65 
                             s_flag:_%s_00102109                             XREF[2]:     warp_jump:00101393(*), 
                                                                                          warp_jump:0010139a(*)  
        00102109 66 6c 61        ds         "flag: %s\n"
                 67 3a 20 
                 25 73 0a 00
        00102113 00              ??         00h
        00102114 00              ??         00h
        00102115 00              ??         00h
        00102116 00              ??         00h
        00102117 00              ??         00h
                             s_Close,_but_not_quite!_Adjust_you_00102118     XREF[2]:     space_hint:001013c8(*), 
                                                                                          space_hint:001013cf(*)  
        00102118 43 6c 6f        ds         "Close, but not quite! Adjust your warp vector
                 73 65 2c 
                 20 62 75 
        00102166 00              ??         00h
        00102167 00              ??         00h
                             s_Star_Log:_Navigation_override_av_00102168     XREF[2]:     main:00101420(*), 
                                                                                          main:00101427(*)  
        00102168 53 74 61        ds         "Star Log: Navigation override available. (Hin
                 72 20 4c 
                 6f 67 3a 
                             DAT_001021a8                                    XREF[2]:     main:0010143b(*), 
                                                                                          main:00101442(*)  
        001021a8 25              ??         25h    %
        001021a9 73              ??         73h    s
        001021aa 00              ??         00h
        001021ab 00              ??         00h
        001021ac 00              ??         00h
        001021ad 00              ??         00h
        001021ae 00              ??         00h
        001021af 00              ??         00h
                             s_Engaging_function_pointer_at_%p._001021b0     XREF[2]:     main:0010148a(*), 
                                                                                          main:00101491(*)  
        001021b0 45 6e 67        ds         "Engaging function pointer at %p... Initiating
                 61 67 69 
                 6e 67 20 
        001021e9 00              ??         00h
        001021ea 00              ??         00h
        001021eb 00              ??         00h
        001021ec 00              ??         00h
        001021ed 00              ??         00h
        001021ee 00              ??         00h
        001021ef 00              ??         00h
                             s_Navigation_Error:_Provided_addre_001021f0     XREF[2]:     main:001014b2(*), 
                                                                                          main:001014b9(*)  
        001021f0 4e 61 76        ds         "Navigation Error: Provided address %p is off-
                 69 67 61 
                 74 69 6f 
        00102226 00              ??         00h
        00102227 00              ??         00h
                             s_Hint:_Redirect_to_a_valid_warp_r_00102228     XREF[2]:     main:001014c6(*), 
                                                                                          main:001014cd(*)  
        00102228 48 69 6e        ds         "Hint: Redirect to a valid warp routine within
                 74 3a 20 
                 52 65 64 
                             //
                             // .eh_frame_hdr 
                             // SHT_PROGBITS  [0x2270 - 0x22bb]
                             // ram:00102270-ram:001022bb
                             //
                             **************************************************************
                             * Exception Handler Frame Header                             *
                             **************************************************************
                             __GNU_EH_FRAME_HDR                              XREF[2]:     00100168(*), 00105350(*)  
        00102270 01 1b 03 3b     eh_frame                                                    Exception Handler Frame Header V
        00102274 4c 00 00 00     ddw        cie_001022c0                                     Encoded eh_frame_ptr
        00102278 08 00 00 00     ddw        8h                                               Encoded FDE count
                             **************************************************************
                             * Frame Description Entry Table                              *
                             **************************************************************
        0010227c b0 ed ff        fde_tabl                                                    Initial Location
                 ff 80 00 
                 00 00
        00102284 60 ee ff        fde_tabl                                                    Initial Location
                 ff a8 00 
                 00 00
        0010228c 70 ee ff        fde_tabl                                                    Initial Location
                 ff c0 00 
                 00 00
        00102294 10 ef ff        fde_tabl                                                    Initial Location
                 ff 68 00 
                 00 00
        0010229c f9 ef ff        fde_tabl                                                    Initial Location
                 ff d8 00 
                 00 00
        001022a4 4f f0 ff        fde_tabl                                                    Initial Location
                 ff f8 00 
                 00 00
        001022ac 50 f1 ff        fde_tabl                                                    Initial Location
                 ff 14 01 
                 00 00
        001022b4 6a f1 ff        fde_tabl                                                    Initial Location
                 ff 34 01 
                 00 00
                             //
                             // .eh_frame 
                             // SHT_PROGBITS  [0x22c0 - 0x23c7]
                             // ram:001022c0-ram:001023c7
                             //
                             **************************************************************
                             * Common Information Entry                                   *
                             **************************************************************
                             cie_001022c0                                    XREF[10]:    00102274(*), 001022dc(*), 
                                                                                          001022f4(*), 0010231c(*), 
                                                                                          00102334(*), 0010234c(*), 
                                                                                          0010236c(*), 00102388(*), 
                                                                                          001023a8(*), 00105390(*)  
        001022c0 14 00 00 00     ddw        14h                                              (CIE) Length
        001022c4 00 00 00 00     ddw        0h                                               (CIE) ID
        001022c8 01              db         1h                                               (CIE) Version
        001022c9 7a 52 00        ds         "zR"                                             (CIE) Augmentation String
        001022cc 01              uleb128    1h                                               (CIE) Code Alignment
        001022cd 78              sleb128    -8h                                              (CIE) Data Alignment
        001022ce 10              db         10h                                              (CIE) Return Address Register Co
        001022cf 01              uleb128    1h                                               (CIE) Augmentation Data Length
        001022d0 1b              dwfenc     DW_EH_PE_sdata4 | DW_EH_PE_pcrel                 (CIE Augmentation Data) FDE Enco
        001022d1 0c 07 08        db[7]                                                       (CIE) Initial Instructions
                 90 01 00 00
                             **************************************************************
                             * Frame Descriptor Entry                                     *
                             **************************************************************
                             fde_001022d8                                    XREF[1]:     00102298(*)  
        001022d8 14 00 00 00     ddw        14h                                              (FDE) Length
        001022dc 1c 00 00 00     ddw        cie_001022c0                                     (FDE) CIE Reference Pointer 
        001022e0 a0 ee ff ff     ddw        _start                                           (FDE) PcBegin
        001022e4 26 00 00 00     ddw        26h                                              (FDE) PcRange
        001022e8 00              uleb128    0h                                               (FDE) Augmentation Data Length
        001022e9 44 07 10        db[7]                                                       (FDE) Call Frame Instructions
                 00 00 00 00
                             **************************************************************
                             * Frame Descriptor Entry                                     *
                             **************************************************************
                             fde_001022f0                                    XREF[1]:     00102280(*)  
        001022f0 24 00 00 00     ddw        24h                                              (FDE) Length
        001022f4 34 00 00 00     ddw        cie_001022c0                                     (FDE) CIE Reference Pointer 
        001022f8 28 ed ff ff     ddw        FUN_00101020                                     (FDE) PcBegin
        001022fc b0 00 00 00     ddw        B0h                                              (FDE) PcRange
        00102300 00              uleb128    0h                                               (FDE) Augmentation Data Length
        00102301 0e 10 46        db[23]                                                      (FDE) Call Frame Instructions
                 0e 18 4a 
                 0f 0b 77 
                             **************************************************************
                             * Frame Descriptor Entry                                     *
                             **************************************************************
                             fde_00102318                                    XREF[1]:     00102288(*)  
        00102318 14 00 00 00     ddw        14h                                              (FDE) Length
        0010231c 5c 00 00 00     ddw        cie_001022c0                                     (FDE) CIE Reference Pointer 
        00102320 b0 ed ff ff     ddw        FUN_001010d0                                     (FDE) PcBegin
        00102324 10 00 00        dq         10h                                              (FDE) PcRange
                 00 00 00 
                 00 00
        0010232c 00              uleb128    0h                                               (FDE) Augmentation Data Length
        0010232d 00 00 00        db[3]                                                       (FDE) Call Frame Instructions
                             **************************************************************
                             * Frame Descriptor Entry                                     *
                             **************************************************************
                             fde_00102330                                    XREF[1]:     00102290(*)  
        00102330 14 00 00 00     ddw        14h                                              (FDE) Length
        00102334 74 00 00 00     ddw        cie_001022c0                                     (FDE) CIE Reference Pointer 
        00102338 a8 ed ff ff     ddw        <EXTERNAL>::puts                                 (FDE) PcBegin
        0010233c a0 00 00        dq         A0h                                              (FDE) PcRange
                 00 00 00 
                 00 00
        00102344 00              uleb128    0h                                               (FDE) Augmentation Data Length
        00102345 00 00 00        db[3]                                                       (FDE) Call Frame Instructions
                             **************************************************************
                             * Frame Descriptor Entry                                     *
                             **************************************************************
                             fde_00102348                                    XREF[1]:     001022a0(*)  
        00102348 1c 00 00 00     ddw        1Ch                                              (FDE) Length
        0010234c 8c 00 00 00     ddw        cie_001022c0                                     (FDE) CIE Reference Pointer 
        00102350 19 ef ff ff     ddw        setup                                            (FDE) PcBegin
        00102354 56 00 00 00     ddw        56h                                              (FDE) PcRange
        00102358 00              uleb128    0h                                               (FDE) Augmentation Data Length
        00102359 45 0e 10        db[15]                                                      (FDE) Call Frame Instructions
                 86 02 43 
                 0d 06 02 
                             **************************************************************
                             * Frame Descriptor Entry                                     *
                             **************************************************************
                             fde_00102368                                    XREF[1]:     001022a8(*)  
        00102368 18 00 00 00     ddw        18h                                              (FDE) Length
        0010236c ac 00 00 00     ddw        cie_001022c0                                     (FDE) CIE Reference Pointer 
        00102370 4f ef ff ff     ddw        warp_jump                                        (FDE) PcBegin
        00102374 01 01 00 00     ddw        101h                                             (FDE) PcRange
        00102378 00              uleb128    0h                                               (FDE) Augmentation Data Length
        00102379 45 0e 10        db[11]                                                      (FDE) Call Frame Instructions
                 86 02 43 
                 0d 06 00 
                             **************************************************************
                             * Frame Descriptor Entry                                     *
                             **************************************************************
                             fde_00102384                                    XREF[1]:     001022b0(*)  
        00102384 1c 00 00 00     ddw        1Ch                                              (FDE) Length
        00102388 c8 00 00 00     ddw        cie_001022c0                                     (FDE) CIE Reference Pointer 
        0010238c 34 f0 ff ff     ddw        space_hint                                       (FDE) PcBegin
        00102390 1a 00 00 00     ddw        1Ah                                              (FDE) PcRange
        00102394 00              uleb128    0h                                               (FDE) Augmentation Data Length
        00102395 45 0e 10        db[15]                                                      (FDE) Call Frame Instructions
                 86 02 43 
                 0d 06 51 
                             **************************************************************
                             * Frame Descriptor Entry                                     *
                             **************************************************************
                             fde_001023a4                                    XREF[1]:     001022b8(*)  
        001023a4 1c 00 00 00     ddw        1Ch                                              (FDE) Length
        001023a8 e8 00 00 00     ddw        cie_001022c0                                     (FDE) CIE Reference Pointer 
        001023ac 2e f0 ff ff     ddw        main                                             (FDE) PcBegin
        001023b0 16 01 00 00     ddw        116h                                             (FDE) PcRange
        001023b4 00              uleb128    0h                                               (FDE) Augmentation Data Length
        001023b5 45 0e 10        db[15]                                                      (FDE) Call Frame Instructions
                 86 02 43 
                 0d 06 03 
                             **************************************************************
                             * END OF FRAME                                               *
                             **************************************************************
                             __FRAME_END__
        001023c4 00 00 00 00     ddw        0h                                               End of Frame
                             //
                             // .init_array 
                             // SHT_INIT_ARRAY  [0x3d60 - 0x3d67]
                             // ram:00103d60-ram:00103d67
                             //
                             __DT_INIT_ARRAY                                 XREF[4]:     001001a0(*), 001001d8(*), 
                             __frame_dummy_init_array_entry                               00103db8(*), 001053d0(*)  
        00103d60 60 12 10        addr       frame_dummy
                 00 00 00 
                 00 00
                             //
                             // .fini_array 
                             // SHT_FINI_ARRAY  [0x3d68 - 0x3d6f]
                             // ram:00103d68-ram:00103d6f
                             //
                             __DT_FINI_ARRAY                                 XREF[2]:     00103dd8(*), 00105410(*)  
                             __do_global_dtors_aux_fini_array_entry
        00103d68 20 12 10        addr       __do_global_dtors_aux
                 00 00 00 
                 00 00
                             //
                             // .dynamic 
                             // SHT_DYNAMIC  [0x3d70 - 0x3f6f]
                             // ram:00103d70-ram:00103f6f
                             //
                             _DYNAMIC                                        XREF[3]:     00100210(*), 00103f70(*), 
                                                                                          00105450(*)  
        00103d70 01 00 00        Elf64_Dy                                                    DT_NEEDED - Name of needed library
                 00 00 00 
                 00 00 80 
        00103f30 00              ??         00h
        00103f31 00              ??         00h
        00103f32 00              ??         00h
        00103f33 00              ??         00h
        00103f34 00              ??         00h
        00103f35 00              ??         00h
        00103f36 00              ??         00h
        00103f37 00              ??         00h
        00103f38 00              ??         00h
        00103f39 00              ??         00h
        00103f3a 00              ??         00h
        00103f3b 00              ??         00h
        00103f3c 00              ??         00h
        00103f3d 00              ??         00h
        00103f3e 00              ??         00h
        00103f3f 00              ??         00h
        00103f40 00              ??         00h
        00103f41 00              ??         00h
        00103f42 00              ??         00h
        00103f43 00              ??         00h
        00103f44 00              ??         00h
        00103f45 00              ??         00h
        00103f46 00              ??         00h
        00103f47 00              ??         00h
        00103f48 00              ??         00h
        00103f49 00              ??         00h
        00103f4a 00              ??         00h
        00103f4b 00              ??         00h
        00103f4c 00              ??         00h
        00103f4d 00              ??         00h
        00103f4e 00              ??         00h
        00103f4f 00              ??         00h
        00103f50 00              ??         00h
        00103f51 00              ??         00h
        00103f52 00              ??         00h
        00103f53 00              ??         00h
        00103f54 00              ??         00h
        00103f55 00              ??         00h
        00103f56 00              ??         00h
        00103f57 00              ??         00h
        00103f58 00              ??         00h
        00103f59 00              ??         00h
        00103f5a 00              ??         00h
        00103f5b 00              ??         00h
        00103f5c 00              ??         00h
        00103f5d 00              ??         00h
        00103f5e 00              ??         00h
        00103f5f 00              ??         00h
        00103f60 00              ??         00h
        00103f61 00              ??         00h
        00103f62 00              ??         00h
        00103f63 00              ??         00h
        00103f64 00              ??         00h
        00103f65 00              ??         00h
        00103f66 00              ??         00h
        00103f67 00              ??         00h
        00103f68 00              ??         00h
        00103f69 00              ??         00h
        00103f6a 00              ??         00h
        00103f6b 00              ??         00h
        00103f6c 00              ??         00h
        00103f6d 00              ??         00h
        00103f6e 00              ??         00h
        00103f6f 00              ??         00h
                             //
                             // .got 
                             // SHT_PROGBITS  [0x3f70 - 0x3fff]
                             // ram:00103f70-ram:00103fff
                             //
                             __DT_PLTGOT                                     XREF[2]:     00103e58(*), 00105490(*)  
                             _GLOBAL_OFFSET_TABLE_
        00103f70 70 3d 10        addr       _DYNAMIC
                 00 00 00 
                 00 00
                             PTR_00103f78                                    XREF[1]:     FUN_00101020:00101020(R)  
        00103f78 00 00 00        addr       00000000
                 00 00 00 
                 00 00
                             PTR_00103f80                                    XREF[1]:     FUN_00101020:00101026  
        00103f80 00 00 00        addr       00000000
                 00 00 00 
                 00 00
                             PTR_puts_00103f88                               XREF[1]:     puts:001010e4  
        00103f88 80 60 10        addr       <EXTERNAL>::puts                                 = ??
                 00 00 00 
                 00 00
                             PTR_fclose_00103f90                             XREF[1]:     fclose:001010f4  
        00103f90 88 60 10        addr       <EXTERNAL>::fclose                               = ??
                 00 00 00 
                 00 00
                             PTR___stack_chk_fail_00103f98                   XREF[1]:     __stack_chk_fail:00101104  
        00103f98 90 60 10        addr       <EXTERNAL>::__stack_chk_fail                     = ??
                 00 00 00 
                 00 00
                             PTR_printf_00103fa0                             XREF[1]:     printf:00101114  
        00103fa0 98 60 10        addr       <EXTERNAL>::printf                               = ??
                 00 00 00 
                 00 00
                             PTR_fgets_00103fa8                              XREF[1]:     fgets:00101124  
        00103fa8 a0 60 10        addr       <EXTERNAL>::fgets                                = ??
                 00 00 00 
                 00 00
                             PTR_stat_00103fb0                               XREF[1]:     stat:00101134  
        00103fb0 a8 60 10        addr       <EXTERNAL>::stat                                 = ??
                 00 00 00 
                 00 00
                             PTR_setvbuf_00103fb8                            XREF[1]:     setvbuf:00101144  
        00103fb8 b0 60 10        addr       <EXTERNAL>::setvbuf                              = ??
                 00 00 00 
                 00 00
                             PTR_fopen_00103fc0                              XREF[1]:     fopen:00101154  
        00103fc0 b8 60 10        addr       <EXTERNAL>::fopen                                = ??
                 00 00 00 
                 00 00
                             PTR___isoc99_scanf_00103fc8                     XREF[1]:     __isoc99_scanf:00101164  
        00103fc8 c0 60 10        addr       <EXTERNAL>::__isoc99_scanf                       = ??
                 00 00 00 
                 00 00
                             PTR_exit_00103fd0                               XREF[1]:     exit:00101174  
        00103fd0 c8 60 10        addr       <EXTERNAL>::exit                                 = ??
                 00 00 00 
                 00 00
                             PTR___libc_start_main_00103fd8                  XREF[1]:     _start:0010119f(R)  
        00103fd8 78 60 10        addr       <EXTERNAL>::__libc_start_main                    = ??
                 00 00 00 
                 00 00
                             PTR__ITM_deregisterTMCloneTable_00103fe0        XREF[1]:     deregister_tm_clones:001011c3(R)  
        00103fe0 08 60 10        addr       <EXTERNAL>::_ITM_deregisterTMCloneTable          = ??
                 00 00 00 
                 00 00
                             PTR___gmon_start___00103fe8                     XREF[1]:     _init:00101008(R)  
        00103fe8 38 60 10        addr       <EXTERNAL>::__gmon_start__                       = ??
                 00 00 00 
                 00 00
                             PTR__ITM_registerTMCloneTable_00103ff0          XREF[1]:     register_tm_clones:00101204(R)  
        00103ff0 68 60 10        addr       <EXTERNAL>::_ITM_registerTMCloneTable            = ??
                 00 00 00 
                 00 00
                             PTR___cxa_finalize_00103ff8                     XREF[2]:     FUN_001010d0:001010d4, 
                                                                                          __do_global_dtors_aux:0010122e(R
        00103ff8 d0 60 10        addr       <EXTERNAL>::__cxa_finalize                       = ??
                 00 00 00 
                 00 00
                             //
                             // .data 
                             // SHT_PROGBITS  [0x4000 - 0x400f]
                             // ram:00104000-ram:0010400f
                             //
                             __data_start                                    XREF[2]:     Entry Point(*), 001054d0(*)  
                             data_start
        00104000 00              ??         00h
        00104001 00              ??         00h
        00104002 00              ??         00h
        00104003 00              ??         00h
        00104004 00              ??         00h
        00104005 00              ??         00h
        00104006 00              ??         00h
        00104007 00              ??         00h
                             __dso_handle                                    XREF[3]:     Entry Point(*), 
                                                                                          __do_global_dtors_aux:0010123b(R
                                                                                          00104008(*)  
        00104008 08 40 10        addr       __dso_handle                                     = 00104008
                 00 00 00 
                 00 00
                             //
                             // .bss 
                             // SHT_NOBITS  [0x4010 - 0x402f]
                             // ram:00104010-ram:0010402f
                             //
                             _edata                                          XREF[7]:     Entry Point(*), 
                             __bss_start                                                  deregister_tm_clones:001011b0(*), 
                             __TMC_END__                                                  deregister_tm_clones:001011b7(*), 
                             stdout@GLIBC_2.2.5                                           register_tm_clones:001011e0(*), 
                             stdout                                                       register_tm_clones:001011e7(*), 
                                                                                          setup:0010128f(R), 00105510(*)  
        00104010 00 00 00        undefined8 0000000000000000h
                 00 00 00 
                 00 00
        00104018 00              ??         00h
        00104019 00              ??         00h
        0010401a 00              ??         00h
        0010401b 00              ??         00h
        0010401c 00              ??         00h
        0010401d 00              ??         00h
        0010401e 00              ??         00h
        0010401f 00              ??         00h
                             stdin@GLIBC_2.2.5                               XREF[2]:     Entry Point(*), 
                             stdin                                                        setup:00101271(R)  
        00104020 00 00 00        undefined8 0000000000000000h
                 00 00 00 
                 00 00
                             completed.0                                     XREF[2]:     __do_global_dtors_aux:00101224(R
                                                                                          __do_global_dtors_aux:0010124c(W
        00104028 00              undefined1 00h
        00104029 00              ??         00h
        0010402a 00              ??         00h
        0010402b 00              ??         00h
        0010402c 00              ??         00h
        0010402d 00              ??         00h
        0010402e 00              ??         00h
        0010402f 00              ??         00h
                             //
                             // segment_9.1 
                             // Loadable segment  [0x5000 - 0x5a2f]
                             // ram:00105000-ram:001057bf
                             //
                             Elf64_Shdr_ARRAY_00105000                       XREF[2]:     00100028(*), 00100248(*)  
        00105000 00 00 00        Elf64_Sh                                                    SECTION0 - SHT_NULL
                 00 00 00 
                 00 00 00 
                             //
                             // .interp 
                             // SHT_PROGBITS  [0x57c0 - 0x57d6]
                             // ram:001057c0-ram:001057d6
                             //
                             s_./ld-linux-x86-64.so.2_001057c0               XREF[2]:     00100280(*), 00105650(*)  
        001057c0 2e 2f 6c        ds         "./ld-linux-x86-64.so.2"                         Initial Elf program interpreter
                 64 2d 6c 
                 69 6e 75 
                             //
                             // .note.gnu.property 
                             // SHT_NOTE  [0x57d8 - 0x5807]
                             // ram:001057d8-ram:00105807
                             //
                             NoteGnuProperty_4_001057d8                      XREF[3]:     001002b8(*), 001002f0(*), 
                                                                                          00105690(*)  
        001057d8 04 00 00        NoteGnuP                                                    Length of name field
                 00 20 00 
                 00 00 05 
        001057e8 02 00 00        NoteGnuP                                                    processor opt 0xc0000002=03 00 0
                 c0 04 00 
                 00 00 03 
        001057f4 00 00 00        NoteGnuP                                                    processor opt 0xc0008002=01 00 0
                 00 02 80 
                 00 c0 04 
        00105800 01              ??         01h
        00105801 00              ??         00h
        00105802 00              ??         00h
        00105803 00              ??         00h
        00105804 00              ??         00h
        00105805 00              ??         00h
        00105806 00              ??         00h
        00105807 00              ??         00h
                             //
                             // .note.gnu.build-id 
                             // SHT_NOTE  [0x5808 - 0x582b]
                             // ram:00105808-ram:0010582b
                             //
                             GnuBuildId_00105808                             XREF[2]:     00100328(*), 001056d0(*)  
        00105808 04 00 00        GnuBuildId                                                  Length of name field
                 00 14 00 
                 00 00 03 
                             //
                             // .note.ABI-tag 
                             // SHT_NOTE  [0x5830 - 0x584f]
                             // ram:00105830-ram:0010584f
                             //
                             NoteAbiTag_00105830                             XREF[2]:     00100360(*), 00105710(*)  
        00105830 04 00 00        NoteAbiTag                                                  Length of name field
                 00 10 00 
                 00 00 01 
                             //
                             // .gnu.hash 
                             // SHT_GNU_HASH  [0x5850 - 0x587f]
                             // ram:00105850-ram:0010587f
                             //
                             __DT_GNU_HASH                                   XREF[2]:     00103df8(*), 00105750(*)  
        00105850 03 00 00 00     ddw        3h                                               GNU Hash Table - nbucket
        00105854 0f 00 00 00     ddw        Fh                                               GNU Hash Table - symbase
        00105858 01 00 00 00     ddw        1h                                               GNU Hash Table - bloom_size
        0010585c 06 00 00 00     ddw        6h                                               GNU Hash Table - bloom_shift
        00105860 00 00 a1        dq[1]                                                       GNU Hash Table - bloom
                 00 80 01 
                 10 00
        00105868 0f 00 00        ddw[3]                                                      GNU Hash Table - buckets
                 00 11 00 
                 00 00 00 
        00105874 28 1d 8c        ddw[3]                                                      GNU Hash Table - chain
                 1c d1 65 
                 ce 6d 67 
                             //
                             // .dynsym 
                             // SHT_DYNSYM  [0x5880 - 0x5a2f]
                             // ram:00105880-ram:00105a2f
                             //
                             __DT_SYMTAB                                     XREF[2]:     00103e18(*), 00105790(*)  
        00105880 00 00 00        Elf64_Sy
                 00 00 00 
                 00 00 00 
                             //
                             // EXTERNAL 
                             // NOTE: This block is artificial and allows ELF Relocations 
                             // ram:00106000-ram:001060d7
                             //
                             **************************************************************
                             *                       THUNK FUNCTION                       *
                             **************************************************************
                             thunk undefined __libc_start_main@GLIBC_2.34()
                               Thunked-Function: <EXTERNAL>::__libc_star
             undefined         <UNASSIGNED>   <RETURN>
                             <EXTERNAL>::__libc_start_main@GLIBC_2.34
        00106000                 ??         ??
        00106001                 ??         ??
        00106002                 ??         ??
        00106003                 ??         ??
        00106004                 ??         ??
        00106005                 ??         ??
        00106006                 ??         ??
        00106007                 ??         ??
                             **************************************************************
                             *                       THUNK FUNCTION                       *
                             **************************************************************
                             thunk undefined _ITM_deregisterTMCloneTable()
                               Thunked-Function: <EXTERNAL>::_ITM_deregi
             undefined         <UNASSIGNED>   <RETURN>
                             <EXTERNAL>::_ITM_deregisterTMCloneTable         XREF[3]:     deregister_tm_clones:001011c3(*), 
                                                                                          deregister_tm_clones:001011cf(c), 
                                                                                          00103fe0(*)  
        00106008                 ??         ??
        00106009                 ??         ??
        0010600a                 ??         ??
        0010600b                 ??         ??
        0010600c                 ??         ??
        0010600d                 ??         ??
        0010600e                 ??         ??
        0010600f                 ??         ??
                             **************************************************************
                             *                       THUNK FUNCTION                       *
                             **************************************************************
                             thunk undefined puts@GLIBC_2.2.5()
                               Thunked-Function: <EXTERNAL>::puts@GLIBC_
             undefined         <UNASSIGNED>   <RETURN>
                             <EXTERNAL>::puts@GLIBC_2.2.5
        00106010                 ??         ??
        00106011                 ??         ??
        00106012                 ??         ??
        00106013                 ??         ??
        00106014                 ??         ??
        00106015                 ??         ??
        00106016                 ??         ??
        00106017                 ??         ??
                             **************************************************************
                             *                       THUNK FUNCTION                       *
                             **************************************************************
                             thunk undefined fclose@GLIBC_2.2.5()
                               Thunked-Function: <EXTERNAL>::fclose@GLIB
             undefined         <UNASSIGNED>   <RETURN>
                             <EXTERNAL>::fclose@GLIBC_2.2.5
        00106018                 ??         ??
        00106019                 ??         ??
        0010601a                 ??         ??
        0010601b                 ??         ??
        0010601c                 ??         ??
        0010601d                 ??         ??
        0010601e                 ??         ??
        0010601f                 ??         ??
                             **************************************************************
                             *                       THUNK FUNCTION                       *
                             **************************************************************
                             thunk undefined __stack_chk_fail@GLIBC_2.4()
                               Thunked-Function: <EXTERNAL>::__stack_chk
             undefined         <UNASSIGNED>   <RETURN>
                             <EXTERNAL>::__stack_chk_fail@GLIBC_2.4
        00106020                 ??         ??
        00106021                 ??         ??
        00106022                 ??         ??
        00106023                 ??         ??
        00106024                 ??         ??
        00106025                 ??         ??
        00106026                 ??         ??
        00106027                 ??         ??
                             **************************************************************
                             *                       THUNK FUNCTION                       *
                             **************************************************************
                             thunk undefined printf@GLIBC_2.2.5()
                               Thunked-Function: <EXTERNAL>::printf@GLIB
             undefined         <UNASSIGNED>   <RETURN>
                             <EXTERNAL>::printf@GLIBC_2.2.5
        00106028                 ??         ??
        00106029                 ??         ??
        0010602a                 ??         ??
        0010602b                 ??         ??
        0010602c                 ??         ??
        0010602d                 ??         ??
        0010602e                 ??         ??
        0010602f                 ??         ??
                             **************************************************************
                             *                       THUNK FUNCTION                       *
                             **************************************************************
                             thunk undefined fgets@GLIBC_2.2.5()
                               Thunked-Function: <EXTERNAL>::fgets@GLIBC
             undefined         <UNASSIGNED>   <RETURN>
                             <EXTERNAL>::fgets@GLIBC_2.2.5
        00106030                 ??         ??
        00106031                 ??         ??
        00106032                 ??         ??
        00106033                 ??         ??
        00106034                 ??         ??
        00106035                 ??         ??
        00106036                 ??         ??
        00106037                 ??         ??
                             **************************************************************
                             *                       THUNK FUNCTION                       *
                             **************************************************************
                             thunk undefined __gmon_start__()
                               Thunked-Function: <EXTERNAL>::__gmon_star
             undefined         <UNASSIGNED>   <RETURN>
                             <EXTERNAL>::__gmon_start__                      XREF[3]:     _init:00101008(*), 
                                                                                          _init:00101014(c), 00103fe8(*)  
        00106038                 ??         ??
        00106039                 ??         ??
        0010603a                 ??         ??
        0010603b                 ??         ??
        0010603c                 ??         ??
        0010603d                 ??         ??
        0010603e                 ??         ??
        0010603f                 ??         ??
                             **************************************************************
                             *                       THUNK FUNCTION                       *
                             **************************************************************
                             thunk undefined stat@GLIBC_2.33()
                               Thunked-Function: <EXTERNAL>::stat@GLIBC_
             undefined         <UNASSIGNED>   <RETURN>
                             <EXTERNAL>::stat@GLIBC_2.33
        00106040                 ??         ??
        00106041                 ??         ??
        00106042                 ??         ??
        00106043                 ??         ??
        00106044                 ??         ??
        00106045                 ??         ??
        00106046                 ??         ??
        00106047                 ??         ??
                             **************************************************************
                             *                       THUNK FUNCTION                       *
                             **************************************************************
                             thunk undefined setvbuf@GLIBC_2.2.5()
                               Thunked-Function: <EXTERNAL>::setvbuf@GLI
             undefined         <UNASSIGNED>   <RETURN>
                             <EXTERNAL>::setvbuf@GLIBC_2.2.5
        00106048                 ??         ??
        00106049                 ??         ??
        0010604a                 ??         ??
        0010604b                 ??         ??
        0010604c                 ??         ??
        0010604d                 ??         ??
        0010604e                 ??         ??
        0010604f                 ??         ??
                             **************************************************************
                             *                       THUNK FUNCTION                       *
                             **************************************************************
                             thunk undefined fopen@GLIBC_2.2.5()
                               Thunked-Function: <EXTERNAL>::fopen@GLIBC
             undefined         <UNASSIGNED>   <RETURN>
                             <EXTERNAL>::fopen@GLIBC_2.2.5
        00106050                 ??         ??
        00106051                 ??         ??
        00106052                 ??         ??
        00106053                 ??         ??
        00106054                 ??         ??
        00106055                 ??         ??
        00106056                 ??         ??
        00106057                 ??         ??
                             **************************************************************
                             *                       THUNK FUNCTION                       *
                             **************************************************************
                             thunk undefined __isoc99_scanf@GLIBC_2.7()
                               Thunked-Function: <EXTERNAL>::__isoc99_sc
             undefined         <UNASSIGNED>   <RETURN>
                             <EXTERNAL>::__isoc99_scanf@GLIBC_2.7
        00106058                 ??         ??
        00106059                 ??         ??
        0010605a                 ??         ??
        0010605b                 ??         ??
        0010605c                 ??         ??
        0010605d                 ??         ??
        0010605e                 ??         ??
        0010605f                 ??         ??
                             **************************************************************
                             *                       THUNK FUNCTION                       *
                             **************************************************************
                             thunk undefined exit@GLIBC_2.2.5()
                               Thunked-Function: <EXTERNAL>::exit@GLIBC_
             undefined         <UNASSIGNED>   <RETURN>
                             <EXTERNAL>::exit@GLIBC_2.2.5
        00106060                 ??         ??
        00106061                 ??         ??
        00106062                 ??         ??
        00106063                 ??         ??
        00106064                 ??         ??
        00106065                 ??         ??
        00106066                 ??         ??
        00106067                 ??         ??
                             **************************************************************
                             *                       THUNK FUNCTION                       *
                             **************************************************************
                             thunk undefined _ITM_registerTMCloneTable()
                               Thunked-Function: <EXTERNAL>::_ITM_regist
             undefined         <UNASSIGNED>   <RETURN>
                             <EXTERNAL>::_ITM_registerTMCloneTable           XREF[3]:     register_tm_clones:00101204(*), 
                                                                                          register_tm_clones:00101210(c), 
                                                                                          00103ff0(*)  
        00106068                 ??         ??
        00106069                 ??         ??
        0010606a                 ??         ??
        0010606b                 ??         ??
        0010606c                 ??         ??
        0010606d                 ??         ??
        0010606e                 ??         ??
        0010606f                 ??         ??
                             **************************************************************
                             *                       THUNK FUNCTION                       *
                             **************************************************************
                             thunk undefined __cxa_finalize@GLIBC_2.2.5()
                               Thunked-Function: <EXTERNAL>::__cxa_final
             undefined         <UNASSIGNED>   <RETURN>
                             <EXTERNAL>::__cxa_finalize@GLIBC_2.2.5
        00106070                 ??         ??
        00106071                 ??         ??
        00106072                 ??         ??
        00106073                 ??         ??
        00106074                 ??         ??
        00106075                 ??         ??
        00106076                 ??         ??
        00106077                 ??         ??
                             **************************************************************
                             *                       THUNK FUNCTION                       *
                             **************************************************************
                             thunk undefined __libc_start_main()
                               Thunked-Function: <EXTERNAL>::__libc_star
             undefined         <UNASSIGNED>   <RETURN>
                             <EXTERNAL>::__libc_start_main                   XREF[2]:     _start:0010119f(c), 00103fd8(*)  
        00106078                 ??         ??
        00106079                 ??         ??
        0010607a                 ??         ??
        0010607b                 ??         ??
        0010607c                 ??         ??
        0010607d                 ??         ??
        0010607e                 ??         ??
        0010607f                 ??         ??
                             **************************************************************
                             *                       THUNK FUNCTION                       *
                             **************************************************************
                             thunk int puts(char * __s)
                               Thunked-Function: <EXTERNAL>::puts
             int               EAX:4          <RETURN>
             char *            RDI:8          __s
                             <EXTERNAL>::puts                                XREF[2]:     puts:001010e0(T), 
                                                                                          puts:001010e4(c), 00103f88(*)  
        00106080                 ??         ??
        00106081                 ??         ??
        00106082                 ??         ??
        00106083                 ??         ??
        00106084                 ??         ??
        00106085                 ??         ??
        00106086                 ??         ??
        00106087                 ??         ??
                             **************************************************************
                             *                       THUNK FUNCTION                       *
                             **************************************************************
                             thunk int fclose(FILE * __stream)
                               Thunked-Function: <EXTERNAL>::fclose
             int               EAX:4          <RETURN>
             FILE *            RDI:8          __stream
                             <EXTERNAL>::fclose                              XREF[2]:     fclose:001010f0(T), 
                                                                                          fclose:001010f4(c), 00103f90(*)  
        00106088                 ??         ??
        00106089                 ??         ??
        0010608a                 ??         ??
        0010608b                 ??         ??
        0010608c                 ??         ??
        0010608d                 ??         ??
        0010608e                 ??         ??
        0010608f                 ??         ??
                             **************************************************************
                             *                       THUNK FUNCTION                       *
                             **************************************************************
                             thunk noreturn undefined __stack_chk_fail()
                               Thunked-Function: <EXTERNAL>::__stack_chk
             undefined         <UNASSIGNED>   <RETURN>
                             <EXTERNAL>::__stack_chk_fail                    XREF[2]:     __stack_chk_fail:00101100(T), 
                                                                                          __stack_chk_fail:00101104(c), 
                                                                                          00103f98(*)  
        00106090                 ??         ??
        00106091                 ??         ??
        00106092                 ??         ??
        00106093                 ??         ??
        00106094                 ??         ??
        00106095                 ??         ??
        00106096                 ??         ??
        00106097                 ??         ??
                             **************************************************************
                             *                       THUNK FUNCTION                       *
                             **************************************************************
                             thunk int printf(char * __format, ...)
                               Thunked-Function: <EXTERNAL>::printf
             int               EAX:4          <RETURN>
             char *            RDI:8          __format
                             <EXTERNAL>::printf                              XREF[2]:     printf:00101110(T), 
                                                                                          printf:00101114(c), 00103fa0(*)  
        00106098                 ??         ??
        00106099                 ??         ??
        0010609a                 ??         ??
        0010609b                 ??         ??
        0010609c                 ??         ??
        0010609d                 ??         ??
        0010609e                 ??         ??
        0010609f                 ??         ??
                             **************************************************************
                             *                       THUNK FUNCTION                       *
                             **************************************************************
                             thunk char * fgets(char * __s, int __n, FILE * __stream)
                               Thunked-Function: <EXTERNAL>::fgets
             char *            RAX:8          <RETURN>
             char *            RDI:8          __s
             int               ESI:4          __n
             FILE *            RDX:8          __stream
                             <EXTERNAL>::fgets                               XREF[2]:     fgets:00101120(T), 
                                                                                          fgets:00101124(c), 00103fa8(*)  
        001060a0                 ??         ??
        001060a1                 ??         ??
        001060a2                 ??         ??
        001060a3                 ??         ??
        001060a4                 ??         ??
        001060a5                 ??         ??
        001060a6                 ??         ??
        001060a7                 ??         ??
                             **************************************************************
                             *                       THUNK FUNCTION                       *
                             **************************************************************
                             thunk int stat(char * __file, stat * __buf)
                               Thunked-Function: <EXTERNAL>::stat
             int               EAX:4          <RETURN>
             char *            RDI:8          __file
             stat *            RSI:8          __buf
                             <EXTERNAL>::stat                                XREF[2]:     stat:00101130(T), 
                                                                                          stat:00101134(c), 00103fb0(*)  
        001060a8                 ??         ??
        001060a9                 ??         ??
        001060aa                 ??         ??
        001060ab                 ??         ??
        001060ac                 ??         ??
        001060ad                 ??         ??
        001060ae                 ??         ??
        001060af                 ??         ??
                             **************************************************************
                             *                       THUNK FUNCTION                       *
                             **************************************************************
                             thunk int setvbuf(FILE * __stream, char * __buf, int __m
                               Thunked-Function: <EXTERNAL>::setvbuf
             int               EAX:4          <RETURN>
             FILE *            RDI:8          __stream
             char *            RSI:8          __buf
             int               EDX:4          __modes
             size_t            RCX:8          __n
                             <EXTERNAL>::setvbuf                             XREF[2]:     setvbuf:00101140(T), 
                                                                                          setvbuf:00101144(c), 00103fb8(*)  
        001060b0                 ??         ??
        001060b1                 ??         ??
        001060b2                 ??         ??
        001060b3                 ??         ??
        001060b4                 ??         ??
        001060b5                 ??         ??
        001060b6                 ??         ??
        001060b7                 ??         ??
                             **************************************************************
                             *                       THUNK FUNCTION                       *
                             **************************************************************
                             thunk FILE * fopen(char * __filename, char * __modes)
                               Thunked-Function: <EXTERNAL>::fopen
             FILE *            RAX:8          <RETURN>
             char *            RDI:8          __filename
             char *            RSI:8          __modes
                             <EXTERNAL>::fopen                               XREF[2]:     fopen:00101150(T), 
                                                                                          fopen:00101154(c), 00103fc0(*)  
        001060b8                 ??         ??
        001060b9                 ??         ??
        001060ba                 ??         ??
        001060bb                 ??         ??
        001060bc                 ??         ??
        001060bd                 ??         ??
        001060be                 ??         ??
        001060bf                 ??         ??
                             **************************************************************
                             *                       THUNK FUNCTION                       *
                             **************************************************************
                             thunk undefined __isoc99_scanf()
                               Thunked-Function: <EXTERNAL>::__isoc99_sc
             undefined         <UNASSIGNED>   <RETURN>
                             <EXTERNAL>::__isoc99_scanf                      XREF[2]:     __isoc99_scanf:00101160(T), 
                                                                                          __isoc99_scanf:00101164(c), 
                                                                                          00103fc8(*)  
        001060c0                 ??         ??
        001060c1                 ??         ??
        001060c2                 ??         ??
        001060c3                 ??         ??
        001060c4                 ??         ??
        001060c5                 ??         ??
        001060c6                 ??         ??
        001060c7                 ??         ??
                             **************************************************************
                             *                       THUNK FUNCTION                       *
                             **************************************************************
                             thunk noreturn void exit(int __status)
                               Thunked-Function: <EXTERNAL>::exit
             void              <VOID>         <RETURN>
             int               EDI:4          __status
                             <EXTERNAL>::exit                                XREF[2]:     exit:00101170(T), 
                                                                                          exit:00101174(c), 00103fd0(*)  
        001060c8                 ??         ??
        001060c9                 ??         ??
        001060ca                 ??         ??
        001060cb                 ??         ??
        001060cc                 ??         ??
        001060cd                 ??         ??
        001060ce                 ??         ??
        001060cf                 ??         ??
                             **************************************************************
                             *                       THUNK FUNCTION                       *
                             **************************************************************
                             thunk undefined __cxa_finalize()
                               Thunked-Function: <EXTERNAL>::__cxa_final
             undefined         <UNASSIGNED>   <RETURN>
                             <EXTERNAL>::__cxa_finalize                      XREF[2]:     FUN_001010d0:001010d4(c), 
                                                                                          00103ff8(*)  
        001060d0                 ??         ??
        001060d1                 ??         ??
        001060d2                 ??         ??
        001060d3                 ??         ??
        001060d4                 ??         ??
        001060d5                 ??         ??
        001060d6                 ??         ??
        001060d7                 ??         ??
                             //
                             // .comment 
                             // SHT_PROGBITS [not-loaded]
                             // .comment::00000000-.comment::0000002a
                             //
             assume DF = <UNKNOWN>
                             ElfComment[0]                                   XREF[1]:     00105550(*)  
     t::00000000 47 43 43        utf8       u8"GCC: (Ubuntu 13.3.0-6ubuntu2~24.04) 13.3.0"
                 3a 20 28 
                 55 62 75 
                             //
                             // .shstrtab 
                             // SHT_STRTAB [not-loaded]
                             // .shstrtab::00000000-.shstrtab::00000119
                             //
                             DAT_.shstrtab__00000000                         XREF[1]:     00105610(*)  
     b::00000000 00              ??         00h
     b::00000001 2e 73 79        utf8       u8".symtab"
                 6d 74 61 
                 62 00
     b::00000009 2e 73 74        utf8       u8".strtab"
                 72 74 61 
                 62 00
     b::00000011 2e 73 68        utf8       u8".shstrtab"
                 73 74 72 
                 74 61 62 00
     b::0000001b 2e 69 6e        utf8       u8".interp"
                 74 65 72 
                 70 00
     b::00000023 2e 6e 6f        utf8       u8".note.gnu.property"
                 74 65 2e 
                 67 6e 75 
     b::00000036 2e 6e 6f        utf8       u8".note.gnu.build-id"
                 74 65 2e 
                 67 6e 75 
     b::00000049 2e 6e 6f        utf8       u8".note.ABI-tag"
                 74 65 2e 
                 41 42 49 
     b::00000057 2e 67 6e        utf8       u8".gnu.hash"
                 75 2e 68 
                 61 73 68 00
     b::00000061 2e 64 79        utf8       u8".dynsym"
                 6e 73 79 
                 6d 00
     b::00000069 2e 64 79        utf8       u8".dynstr"
                 6e 73 74 
                 72 00
     b::00000071 2e 67 6e        utf8       u8".gnu.version"
                 75 2e 76 
                 65 72 73 
     b::0000007e 2e 67 6e        utf8       u8".gnu.version_r"
                 75 2e 76 
                 65 72 73 
     b::0000008d 2e 72 65        utf8       u8".rela.dyn"
                 6c 61 2e 
                 64 79 6e 00
     b::00000097 2e 72 65        utf8       u8".rela.plt"
                 6c 61 2e 
                 70 6c 74 00
     b::000000a1 2e 69 6e        utf8       u8".init"
                 69 74 00
     b::000000a7 2e 70 6c        utf8       u8".plt.got"
                 74 2e 67 
                 6f 74 00
     b::000000b0 2e 70 6c        utf8       u8".plt.sec"
                 74 2e 73 
                 65 63 00
     b::000000b9 2e 74 65        utf8       u8".text"
                 78 74 00
     b::000000bf 2e 66 69        utf8       u8".fini"
                 6e 69 00
     b::000000c5 2e 72 6f        utf8       u8".rodata"
                 64 61 74 
                 61 00
     b::000000cd 2e 65 68        utf8       u8".eh_frame_hdr"
                 5f 66 72 
                 61 6d 65 
     b::000000db 2e 65 68        utf8       u8".eh_frame"
                 5f 66 72 
                 61 6d 65 00
     b::000000e5 2e 69 6e        utf8       u8".init_array"
                 69 74 5f 
                 61 72 72 
     b::000000f1 2e 66 69        utf8       u8".fini_array"
                 6e 69 5f 
                 61 72 72 
     b::000000fd 2e 64 79        utf8       u8".dynamic"
                 6e 61 6d 
                 69 63 00
     b::00000106 2e 64 61        utf8       u8".data"
                 74 61 00
     b::0000010c 2e 62 73        utf8       u8".bss"
                 73 00
     b::00000111 2e 63 6f        utf8       u8".comment"
                 6d 6d 65 
                 6e 74 00
                             //
                             // .strtab 
                             // SHT_STRTAB [not-loaded]
                             // .strtab::00000000-.strtab::000002cc
                             //
                             DAT_.strtab__00000000                           XREF[1]:     001055d0(*)  
     b::00000000 00              ??         00h
     b::00000001 53 63 72        utf8       u8"Scrt1.o"
                 74 31 2e 
                 6f 00
     b::00000009 5f 5f 61        utf8       u8"__abi_tag"
                 62 69 5f 
                 74 61 67 00
     b::00000013 63 72 74        utf8       u8"crtstuff.c"
                 73 74 75 
                 66 66 2e 
     b::0000001e 64 65 72        utf8       u8"deregister_tm_clones"
                 65 67 69 
                 73 74 65 
     b::00000033 5f 5f 64        utf8       u8"__do_global_dtors_aux"
                 6f 5f 67 
                 6c 6f 62 
     b::00000049 63 6f 6d        utf8       u8"completed.0"
                 70 6c 65 
                 74 65 64 
     b::00000055 5f 5f 64        utf8       u8"__do_global_dtors_aux_fini_array_entry"
                 6f 5f 67 
                 6c 6f 62 
     b::0000007c 66 72 61        utf8       u8"frame_dummy"
                 6d 65 5f 
                 64 75 6d 
     b::00000088 5f 5f 66        utf8       u8"__frame_dummy_init_array_entry"
                 72 61 6d 
                 65 5f 64 
     b::000000a7 77 61 72        utf8       u8"warp.c"
                 70 2e 63 00
     b::000000ae 5f 5f 46        utf8       u8"__FRAME_END__"
                 52 41 4d 
                 45 5f 45 
     b::000000bc 5f 44 59        utf8       u8"_DYNAMIC"
                 4e 41 4d 
                 49 43 00
     b::000000c5 5f 5f 47        utf8       u8"__GNU_EH_FRAME_HDR"
                 4e 55 5f 
                 45 48 5f 
     b::000000d8 5f 47 4c        utf8       u8"_GLOBAL_OFFSET_TABLE_"
                 4f 42 41 
                 4c 5f 4f 
     b::000000ee 5f 5f 6c        utf8       u8"__libc_start_main@GLIBC_2.34"
                 69 62 63 
                 5f 73 74 
     b::0000010b 5f 49 54        utf8       u8"_ITM_deregisterTMCloneTable"
                 4d 5f 64 
                 65 72 65 
     b::00000127 73 74 64        utf8       u8"stdout@GLIBC_2.2.5"
                 6f 75 74 
                 40 47 4c 
     b::0000013a 70 75 74        utf8       u8"puts@GLIBC_2.2.5"
                 73 40 47 
                 4c 49 42 
     b::0000014b 73 74 64        utf8       u8"stdin@GLIBC_2.2.5"
                 69 6e 40 
                 47 4c 49 
     b::0000015d 5f 65 64        utf8       u8"_edata"
                 61 74 61 00
     b::00000164 77 61 72        utf8       u8"warp_jump"
                 70 5f 6a 
                 75 6d 70 00
     b::0000016e 66 63 6c        utf8       u8"fclose@GLIBC_2.2.5"
                 6f 73 65 
                 40 47 4c 
     b::00000181 5f 66 69        utf8       u8"_fini"
                 6e 69 00
     b::00000187 5f 5f 73        utf8       u8"__stack_chk_fail@GLIBC_2.4"
                 74 61 63 
                 6b 5f 63 
     b::000001a2 70 72 69        utf8       u8"printf@GLIBC_2.2.5"
                 6e 74 66 
                 40 47 4c 
     b::000001b5 73 70 61        utf8       u8"space_hint"
                 63 65 5f 
                 68 69 6e 
     b::000001c0 66 67 65        utf8       u8"fgets@GLIBC_2.2.5"
                 74 73 40 
                 47 4c 49 
     b::000001d2 5f 5f 64        utf8       u8"__data_start"
                 61 74 61 
                 5f 73 74 
     b::000001df 5f 5f 67        utf8       u8"__gmon_start__"
                 6d 6f 6e 
                 5f 73 74 
     b::000001ee 73 74 61        utf8       u8"stat@GLIBC_2.33"
                 74 40 47 
                 4c 49 42 
     b::000001fe 5f 5f 64        utf8       u8"__dso_handle"
                 73 6f 5f 
                 68 61 6e 
     b::0000020b 5f 49 4f        utf8       u8"_IO_stdin_used"
                 5f 73 74 
                 64 69 6e 
     b::0000021a 5f 65 6e        utf8       u8"_end"
                 64 00
     b::0000021f 5f 5f 62        utf8       u8"__bss_start"
                 73 73 5f 
                 73 74 61 
     b::0000022b 6d 61 69        utf8       u8"main"
                 6e 00
     b::00000230 73 65 74        utf8       u8"setvbuf@GLIBC_2.2.5"
                 76 62 75 
                 66 40 47 
     b::00000244 66 6f 70        utf8       u8"fopen@GLIBC_2.2.5"
                 65 6e 40 
                 47 4c 49 
     b::00000256 5f 5f 69        utf8       u8"__isoc99_scanf@GLIBC_2.7"
                 73 6f 63 
                 39 39 5f 
     b::0000026f 65 78 69        utf8       u8"exit@GLIBC_2.2.5"
                 74 40 47 
                 4c 49 42 
     b::00000280 5f 5f 54        utf8       u8"__TMC_END__"
                 4d 43 5f 
                 45 4e 44 
     b::0000028c 5f 49 54        utf8       u8"_ITM_registerTMCloneTable"
                 4d 5f 72 
                 65 67 69 
     b::000002a6 5f 5f 63        utf8       u8"__cxa_finalize@GLIBC_2.2.5"
                 78 61 5f 
                 66 69 6e 
     b::000002c1 5f 69 6e        utf8       u8"_init"
                 69 74 00
     b::000002c7 73 65 74        utf8       u8"setup"
                 75 70 00
                             //
                             // .symtab 
                             // SHT_SYMTAB [not-loaded]
                             // .symtab::00000000-.symtab::000004af
                             //
                             Elf64_Sym_ARRAY_.symtab__00000000               XREF[1]:     00105590(*)  
     b::00000000 00 00 00        Elf64_Sy
                 00 00 00 
                 00 00 00 
                             //
                             // unallocated_0 
                             // unallocated_0::00000000-unallocated_0::00001728
                             //
     0::00000000 00              ??         00h
     0::00000001 00              ??         00h
     0::00000002 00              ??         00h
     0::00000003 00              ??         00h
     0::00000004 00              ??         00h
     0::00000005 00              ??         00h
     0::00000006 00              ??         00h
     0::00000007 00              ??         00h
     0::00000008 00              ??         00h
     0::00000009 00              ??         00h
     0::0000000a 00              ??         00h
     0::0000000b 00              ??         00h
     0::0000000c 00              ??         00h
     0::0000000d 00              ??         00h
     0::0000000e 00              ??         00h
     0::0000000f 00              ??         00h
     0::00000010 00              ??         00h
     0::00000011 00              ??         00h
     0::00000012 00              ??         00h
     0::00000013 00              ??         00h
     0::00000014 00              ??         00h
     0::00000015 00              ??         00h
     0::00000016 00              ??         00h
     0::00000017 00              ??         00h
     0::00000018 00              ??         00h
     0::00000019 00              ??         00h
     0::0000001a 00              ??         00h
     0::0000001b 00              ??         00h
     0::0000001c 00              ??         00h
     0::0000001d 00              ??         00h
     0::0000001e 00              ??         00h
     0::0000001f 00              ??         00h
     0::00000020 00              ??         00h
     0::00000021 00              ??         00h
     0::00000022 00              ??         00h
     0::00000023 00              ??         00h
     0::00000024 00              ??         00h
     0::00000025 00              ??         00h
     0::00000026 00              ??         00h
     0::00000027 00              ??         00h
     0::00000028 00              ??         00h
     0::00000029 00              ??         00h
     0::0000002a 00              ??         00h
     0::0000002b 00              ??         00h
     0::0000002c 00              ??         00h
     0::0000002d 00              ??         00h
     0::0000002e 00              ??         00h
     0::0000002f 00              ??         00h
     0::00000030 00              ??         00h
     0::00000031 00              ??         00h
     0::00000032 00              ??         00h
     0::00000033 00              ??         00h
     0::00000034 00              ??         00h
     0::00000035 00              ??         00h
     0::00000036 00              ??         00h
     0::00000037 00              ??         00h
     0::00000038 00              ??         00h
     0::00000039 00              ??         00h
     0::0000003a 00              ??         00h
     0::0000003b 00              ??         00h
     0::0000003c 00              ??         00h
     0::0000003d 00              ??         00h
     0::0000003e 00              ??         00h
     0::0000003f 00              ??         00h
     0::00000040 00              ??         00h
     0::00000041 1b              ??         1Bh
     0::00000042 00              ??         00h
     0::00000043 00              ??         00h
     0::00000044 00              ??         00h
     0::00000045 01              ??         01h
     0::00000046 00              ??         00h
     0::00000047 00              ??         00h
     0::00000048 00              ??         00h                                              ?  ->  unallocated_0::00000200
     0::00000049 02              ??         02h                                              ?  ->  unallocated_0::00000002
     0::0000004a 00              ??         00h
     0::0000004b 00              ??         00h
     0::0000004c 00              ??         00h
     0::0000004d 00              ??         00h
     0::0000004e 00              ??         00h
     0::0000004f 00              ??         00h
     0::00000050 00              ??         00h
     0::00000051 18              ??         18h                                              ?  ->  unallocated_0::00000318
     0::00000052 03              ??         03h
     0::00000053 00              ??         00h
     0::00000054 00              ??         00h
     0::00000055 00              ??         00h
     0::00000056 00              ??         00h
     0::00000057 00              ??         00h
     0::00000058 00              ??         00h
     0::00000059 18              ??         18h                                              ?  ->  unallocated_0::00000318
     0::0000005a 03              ??         03h
     0::0000005b 00              ??         00h
     0::0000005c 00              ??         00h
     0::0000005d 00              ??         00h
     0::0000005e 00              ??         00h
     0::0000005f 00              ??         00h
     0::00000060 00              ??         00h
     0::00000061 1c              ??         1Ch                                              ?  ->  unallocated_0::0000001c
     0::00000062 00              ??         00h
     0::00000063 00              ??         00h
     0::00000064 00              ??         00h
     0::00000065 00              ??         00h
     0::00000066 00              ??         00h
     0::00000067 00              ??         00h
     0::00000068 00              ??         00h
     0::00000069 00              ??         00h
     0::0000006a 00              ??         00h
     0::0000006b 00              ??         00h
     0::0000006c 00              ??         00h
     0::0000006d 00              ??         00h
     0::0000006e 00              ??         00h
     0::0000006f 00              ??         00h
     0::00000070 00              ??         00h                                              ?  ->  unallocated_0::00000100
     0::00000071 01              ??         01h                                              ?  ->  unallocated_0::00000001
     0::00000072 00              ??         00h
     0::00000073 00              ??         00h
     0::00000074 00              ??         00h
     0::00000075 00              ??         00h
     0::00000076 00              ??         00h
     0::00000077 00              ??         00h
     0::00000078 00              ??         00h
     0::00000079 00              ??         00h
     0::0000007a 00              ??         00h
     0::0000007b 00              ??         00h
     0::0000007c 00              ??         00h
     0::0000007d 00              ??         00h
     0::0000007e 00              ??         00h
     0::0000007f 00              ??         00h
     0::00000080 00              ??         00h
     0::00000081 23              ??         23h    #
     0::00000082 00              ??         00h
     0::00000083 00              ??         00h
     0::00000084 00              ??         00h
     0::00000085 07              ??         07h
     0::00000086 00              ??         00h
     0::00000087 00              ??         00h
     0::00000088 00              ??         00h                                              ?  ->  unallocated_0::00000200
     0::00000089 02              ??         02h                                              ?  ->  unallocated_0::00000002
     0::0000008a 00              ??         00h
     0::0000008b 00              ??         00h
     0::0000008c 00              ??         00h
     0::0000008d 00              ??         00h
     0::0000008e 00              ??         00h
     0::0000008f 00              ??         00h
     0::00000090 00              ??         00h
     0::00000091 38              ??         38h    8                                         ?  ->  unallocated_0::00000338
     0::00000092 03              ??         03h
     0::00000093 00              ??         00h
     0::00000094 00              ??         00h
     0::00000095 00              ??         00h
     0::00000096 00              ??         00h
     0::00000097 00              ??         00h
     0::00000098 00              ??         00h
     0::00000099 38              ??         38h    8                                         ?  ->  unallocated_0::00000338
     0::0000009a 03              ??         03h
     0::0000009b 00              ??         00h
     0::0000009c 00              ??         00h
     0::0000009d 00              ??         00h
     0::0000009e 00              ??         00h
     0::0000009f 00              ??         00h
     0::000000a0 00              ??         00h
     0::000000a1 30              ??         30h    0                                         ?  ->  unallocated_0::00000030
     0::000000a2 00              ??         00h
     0::000000a3 00              ??         00h
     0::000000a4 00              ??         00h
     0::000000a5 00              ??         00h
     0::000000a6 00              ??         00h
     0::000000a7 00              ??         00h
     0::000000a8 00              ??         00h
     0::000000a9 00              ??         00h
     0::000000aa 00              ??         00h
     0::000000ab 00              ??         00h
     0::000000ac 00              ??         00h
     0::000000ad 00              ??         00h
     0::000000ae 00              ??         00h
     0::000000af 00              ??         00h
     0::000000b0 00              ??         00h                                              ?  ->  unallocated_0::00000800
     0::000000b1 08              ??         08h                                              ?  ->  unallocated_0::00000008
     0::000000b2 00              ??         00h
     0::000000b3 00              ??         00h
     0::000000b4 00              ??         00h
     0::000000b5 00              ??         00h
     0::000000b6 00              ??         00h
     0::000000b7 00              ??         00h
     0::000000b8 00              ??         00h
     0::000000b9 00              ??         00h
     0::000000ba 00              ??         00h
     0::000000bb 00              ??         00h
     0::000000bc 00              ??         00h
     0::000000bd 00              ??         00h
     0::000000be 00              ??         00h
     0::000000bf 00              ??         00h
     0::000000c0 00              ??         00h
     0::000000c1 36              ??         36h    6
     0::000000c2 00              ??         00h
     0::000000c3 00              ??         00h
     0::000000c4 00              ??         00h
     0::000000c5 07              ??         07h
     0::000000c6 00              ??         00h
     0::000000c7 00              ??         00h
     0::000000c8 00              ??         00h                                              ?  ->  unallocated_0::00000200
     0::000000c9 02              ??         02h                                              ?  ->  unallocated_0::00000002
     0::000000ca 00              ??         00h
     0::000000cb 00              ??         00h
     0::000000cc 00              ??         00h
     0::000000cd 00              ??         00h
     0::000000ce 00              ??         00h
     0::000000cf 00              ??         00h
     0::000000d0 00              ??         00h
     0::000000d1 68              ??         68h    h                                         ?  ->  unallocated_0::00000368
     0::000000d2 03              ??         03h
     0::000000d3 00              ??         00h
     0::000000d4 00              ??         00h
     0::000000d5 00              ??         00h
     0::000000d6 00              ??         00h
     0::000000d7 00              ??         00h
     0::000000d8 00              ??         00h
     0::000000d9 68              ??         68h    h                                         ?  ->  unallocated_0::00000368
     0::000000da 03              ??         03h
     0::000000db 00              ??         00h
     0::000000dc 00              ??         00h
     0::000000dd 00              ??         00h
     0::000000de 00              ??         00h
     0::000000df 00              ??         00h
     0::000000e0 00              ??         00h
     0::000000e1 24              ??         24h    $                                         ?  ->  unallocated_0::00000024
     0::000000e2 00              ??         00h
     0::000000e3 00              ??         00h
     0::000000e4 00              ??         00h
     0::000000e5 00              ??         00h
     0::000000e6 00              ??         00h
     0::000000e7 00              ??         00h
     0::000000e8 00              ??         00h
     0::000000e9 00              ??         00h
     0::000000ea 00              ??         00h
     0::000000eb 00              ??         00h
     0::000000ec 00              ??         00h
     0::000000ed 00              ??         00h
     0::000000ee 00              ??         00h
     0::000000ef 00              ??         00h
     0::000000f0 00              ??         00h                                              ?  ->  unallocated_0::00000400
     0::000000f1 04              ??         04h                                              ?  ->  unallocated_0::00000004
     0::000000f2 00              ??         00h
     0::000000f3 00              ??         00h
     0::000000f4 00              ??         00h
     0::000000f5 00              ??         00h
     0::000000f6 00              ??         00h
     0::000000f7 00              ??         00h
     0::000000f8 00              ??         00h
     0::000000f9 00              ??         00h
     0::000000fa 00              ??         00h
     0::000000fb 00              ??         00h
     0::000000fc 00              ??         00h
     0::000000fd 00              ??         00h
     0::000000fe 00              ??         00h
     0::000000ff 00              ??         00h
     0::00000100 00              ??         00h
     0::00000101 49              ??         49h    I
     0::00000102 00              ??         00h
     0::00000103 00              ??         00h
     0::00000104 00              ??         00h
     0::00000105 07              ??         07h
     0::00000106 00              ??         00h
     0::00000107 00              ??         00h
     0::00000108 00              ??         00h                                              ?  ->  unallocated_0::00000200
     0::00000109 02              ??         02h                                              ?  ->  unallocated_0::00000002
     0::0000010a 00              ??         00h
     0::0000010b 00              ??         00h
     0::0000010c 00              ??         00h
     0::0000010d 00              ??         00h
     0::0000010e 00              ??         00h
     0::0000010f 00              ??         00h
     0::00000110 00              ??         00h
     0::00000111 8c              ??         8Ch                                              ?  ->  unallocated_0::0000038c
     0::00000112 03              ??         03h
     0::00000113 00              ??         00h
     0::00000114 00              ??         00h
     0::00000115 00              ??         00h
     0::00000116 00              ??         00h
     0::00000117 00              ??         00h
     0::00000118 00              ??         00h
     0::00000119 8c              ??         8Ch                                              ?  ->  unallocated_0::0000038c
     0::0000011a 03              ??         03h
     0::0000011b 00              ??         00h
     0::0000011c 00              ??         00h
     0::0000011d 00              ??         00h
     0::0000011e 00              ??         00h
     0::0000011f 00              ??         00h
     0::00000120 00              ??         00h
     0::00000121 20              ??         20h                                              ?  ->  unallocated_0::00000020
     0::00000122 00              ??         00h
     0::00000123 00              ??         00h
     0::00000124 00              ??         00h
     0::00000125 00              ??         00h
     0::00000126 00              ??         00h
     0::00000127 00              ??         00h
     0::00000128 00              ??         00h
     0::00000129 00              ??         00h
     0::0000012a 00              ??         00h
     0::0000012b 00              ??         00h
     0::0000012c 00              ??         00h
     0::0000012d 00              ??         00h
     0::0000012e 00              ??         00h
     0::0000012f 00              ??         00h
     0::00000130 00              ??         00h                                              ?  ->  unallocated_0::00000400
     0::00000131 04              ??         04h                                              ?  ->  unallocated_0::00000004
     0::00000132 00              ??         00h
     0::00000133 00              ??         00h
     0::00000134 00              ??         00h
     0::00000135 00              ??         00h
     0::00000136 00              ??         00h
     0::00000137 00              ??         00h
     0::00000138 00              ??         00h
     0::00000139 00              ??         00h
     0::0000013a 00              ??         00h
     0::0000013b 00              ??         00h
     0::0000013c 00              ??         00h
     0::0000013d 00              ??         00h
     0::0000013e 00              ??         00h
     0::0000013f 00              ??         00h
     0::00000140 00              ??         00h
     0::00000141 57              ??         57h    W
     0::00000142 00              ??         00h
     0::00000143 00              ??         00h
     0::00000144 00              ??         00h
     0::00000145 f6              ??         F6h
     0::00000146 ff              ??         FFh
     0::00000147 ff              ??         FFh
     0::00000148 6f              ??         6Fh    o                                         ?  ->  unallocated_0::0000026f
     0::00000149 02              ??         02h                                              ?  ->  unallocated_0::00000002
     0::0000014a 00              ??         00h
     0::0000014b 00              ??         00h
     0::0000014c 00              ??         00h
     0::0000014d 00              ??         00h
     0::0000014e 00              ??         00h
     0::0000014f 00              ??         00h
     0::00000150 00              ??         00h
     0::00000151 b0              ??         B0h                                              ?  ->  unallocated_0::000003b0
     0::00000152 03              ??         03h
     0::00000153 00              ??         00h
     0::00000154 00              ??         00h
     0::00000155 00              ??         00h
     0::00000156 00              ??         00h
     0::00000157 00              ??         00h
     0::00000158 00              ??         00h
     0::00000159 b0              ??         B0h                                              ?  ->  unallocated_0::000003b0
     0::0000015a 03              ??         03h
     0::0000015b 00              ??         00h
     0::0000015c 00              ??         00h
     0::0000015d 00              ??         00h
     0::0000015e 00              ??         00h
     0::0000015f 00              ??         00h
     0::00000160 00              ??         00h
     0::00000161 30              ??         30h    0                                         ?  ->  unallocated_0::00000030
     0::00000162 00              ??         00h
     0::00000163 00              ??         00h
     0::00000164 00              ??         00h
     0::00000165 00              ??         00h
     0::00000166 00              ??         00h
     0::00000167 00              ??         00h
     0::00000168 00              ??         00h                                              ?  ->  unallocated_0::00000600
     0::00000169 06              ??         06h                                              ?  ->  unallocated_0::00000006
     0::0000016a 00              ??         00h
     0::0000016b 00              ??         00h
     0::0000016c 00              ??         00h
     0::0000016d 00              ??         00h
     0::0000016e 00              ??         00h
     0::0000016f 00              ??         00h
     0::00000170 00              ??         00h                                              ?  ->  unallocated_0::00000800
     0::00000171 08              ??         08h                                              ?  ->  unallocated_0::00000008
     0::00000172 00              ??         00h
     0::00000173 00              ??         00h
     0::00000174 00              ??         00h
     0::00000175 00              ??         00h
     0::00000176 00              ??         00h
     0::00000177 00              ??         00h
     0::00000178 00              ??         00h
     0::00000179 00              ??         00h
     0::0000017a 00              ??         00h
     0::0000017b 00              ??         00h
     0::0000017c 00              ??         00h
     0::0000017d 00              ??         00h
     0::0000017e 00              ??         00h
     0::0000017f 00              ??         00h
     0::00000180 00              ??         00h
     0::00000181 61              ??         61h    a
     0::00000182 00              ??         00h
     0::00000183 00              ??         00h
     0::00000184 00              ??         00h
     0::00000185 0b              ??         0Bh
     0::00000186 00              ??         00h
     0::00000187 00              ??         00h
     0::00000188 00              ??         00h                                              ?  ->  unallocated_0::00000200
     0::00000189 02              ??         02h                                              ?  ->  unallocated_0::00000002
     0::0000018a 00              ??         00h
     0::0000018b 00              ??         00h
     0::0000018c 00              ??         00h
     0::0000018d 00              ??         00h
     0::0000018e 00              ??         00h
     0::0000018f 00              ??         00h
     0::00000190 00              ??         00h
     0::00000191 e0              ??         E0h                                              ?  ->  unallocated_0::000003e0
     0::00000192 03              ??         03h
     0::00000193 00              ??         00h
     0::00000194 00              ??         00h
     0::00000195 00              ??         00h
     0::00000196 00              ??         00h
     0::00000197 00              ??         00h
     0::00000198 00              ??         00h
     0::00000199 e0              ??         E0h                                              ?  ->  unallocated_0::000003e0
     0::0000019a 03              ??         03h
     0::0000019b 00              ??         00h
     0::0000019c 00              ??         00h
     0::0000019d 00              ??         00h
     0::0000019e 00              ??         00h
     0::0000019f 00              ??         00h
     0::000001a0 00              ??         00h
     0::000001a1 b0              ??         B0h                                              ?  ->  unallocated_0::000001b0
     0::000001a2 01              ??         01h
     0::000001a3 00              ??         00h
     0::000001a4 00              ??         00h
     0::000001a5 00              ??         00h
     0::000001a6 00              ??         00h
     0::000001a7 00              ??         00h
     0::000001a8 00              ??         00h
     0::000001a9 07              ??         07h
     0::000001aa 00              ??         00h
     0::000001ab 00              ??         00h
     0::000001ac 00              ??         00h
     0::000001ad 01              ??         01h
     0::000001ae 00              ??         00h
     0::000001af 00              ??         00h
     0::000001b0 00              ??         00h                                              ?  ->  unallocated_0::00000800
     0::000001b1 08              ??         08h                                              ?  ->  unallocated_0::00000008
     0::000001b2 00              ??         00h
     0::000001b3 00              ??         00h
     0::000001b4 00              ??         00h
     0::000001b5 00              ??         00h
     0::000001b6 00              ??         00h
     0::000001b7 00              ??         00h
     0::000001b8 00              ??         00h
     0::000001b9 18              ??         18h                                              ?  ->  unallocated_0::00000018
     0::000001ba 00              ??         00h
     0::000001bb 00              ??         00h
     0::000001bc 00              ??         00h
     0::000001bd 00              ??         00h
     0::000001be 00              ??         00h
     0::000001bf 00              ??         00h
     0::000001c0 00              ??         00h
     0::000001c1 69              ??         69h    i
     0::000001c2 00              ??         00h
     0::000001c3 00              ??         00h
     0::000001c4 00              ??         00h
     0::000001c5 03              ??         03h
     0::000001c6 00              ??         00h
     0::000001c7 00              ??         00h
     0::000001c8 00              ??         00h                                              ?  ->  unallocated_0::00000200
     0::000001c9 02              ??         02h                                              ?  ->  unallocated_0::00000002
     0::000001ca 00              ??         00h
     0::000001cb 00              ??         00h
     0::000001cc 00              ??         00h
     0::000001cd 00              ??         00h
     0::000001ce 00              ??         00h
     0::000001cf 00              ??         00h
     0::000001d0 00              ??         00h
     0::000001d1 90              ??         90h                                              ?  ->  unallocated_0::00000590
     0::000001d2 05              ??         05h
     0::000001d3 00              ??         00h
     0::000001d4 00              ??         00h
     0::000001d5 00              ??         00h
     0::000001d6 00              ??         00h
     0::000001d7 00              ??         00h
     0::000001d8 00              ??         00h
     0::000001d9 90              ??         90h                                              ?  ->  unallocated_0::00000590
     0::000001da 05              ??         05h
     0::000001db 00              ??         00h
     0::000001dc 00              ??         00h
     0::000001dd 00              ??         00h
     0::000001de 00              ??         00h
     0::000001df 00              ??         00h
     0::000001e0 00              ??         00h
     0::000001e1 08              ??         08h                                              ?  ->  unallocated_0::00000108
     0::000001e2 01              ??         01h                                              ?  ->  unallocated_0::00000001
     0::000001e3 00              ??         00h
     0::000001e4 00              ??         00h
     0::000001e5 00              ??         00h
     0::000001e6 00              ??         00h
     0::000001e7 00              ??         00h
     0::000001e8 00              ??         00h
     0::000001e9 00              ??         00h
     0::000001ea 00              ??         00h
     0::000001eb 00              ??         00h
     0::000001ec 00              ??         00h
     0::000001ed 00              ??         00h
     0::000001ee 00              ??         00h
     0::000001ef 00              ??         00h
     0::000001f0 00              ??         00h                                              ?  ->  unallocated_0::00000100
     0::000001f1 01              ??         01h                                              ?  ->  unallocated_0::00000001
     0::000001f2 00              ??         00h
     0::000001f3 00              ??         00h
     0::000001f4 00              ??         00h
     0::000001f5 00              ??         00h
     0::000001f6 00              ??         00h
     0::000001f7 00              ??         00h
     0::000001f8 00              ??         00h
     0::000001f9 00              ??         00h
     0::000001fa 00              ??         00h
     0::000001fb 00              ??         00h
     0::000001fc 00              ??         00h
     0::000001fd 00              ??         00h
     0::000001fe 00              ??         00h
     0::000001ff 00              ??         00h
     0::00000200 00              ??         00h
     0::00000201 71              ??         71h    q
     0::00000202 00              ??         00h
     0::00000203 00              ??         00h
     0::00000204 00              ??         00h
     0::00000205 ff              ??         FFh
     0::00000206 ff              ??         FFh
     0::00000207 ff              ??         FFh
     0::00000208 6f              ??         6Fh    o                                         ?  ->  unallocated_0::0000026f
     0::00000209 02              ??         02h                                              ?  ->  unallocated_0::00000002
     0::0000020a 00              ??         00h
     0::0000020b 00              ??         00h
     0::0000020c 00              ??         00h
     0::0000020d 00              ??         00h
     0::0000020e 00              ??         00h
     0::0000020f 00              ??         00h
     0::00000210 00              ??         00h
     0::00000211 98              ??         98h                                              ?  ->  unallocated_0::00000698
     0::00000212 06              ??         06h
     0::00000213 00              ??         00h
     0::00000214 00              ??         00h
     0::00000215 00              ??         00h
     0::00000216 00              ??         00h
     0::00000217 00              ??         00h
     0::00000218 00              ??         00h
     0::00000219 98              ??         98h                                              ?  ->  unallocated_0::00000698
     0::0000021a 06              ??         06h
     0::0000021b 00              ??         00h
     0::0000021c 00              ??         00h
     0::0000021d 00              ??         00h
     0::0000021e 00              ??         00h
     0::0000021f 00              ??         00h
     0::00000220 00              ??         00h
     0::00000221 24              ??         24h    $                                         ?  ->  unallocated_0::00000024
     0::00000222 00              ??         00h
     0::00000223 00              ??         00h
     0::00000224 00              ??         00h
     0::00000225 00              ??         00h
     0::00000226 00              ??         00h
     0::00000227 00              ??         00h
     0::00000228 00              ??         00h                                              ?  ->  unallocated_0::00000600
     0::00000229 06              ??         06h                                              ?  ->  unallocated_0::00000006
     0::0000022a 00              ??         00h
     0::0000022b 00              ??         00h
     0::0000022c 00              ??         00h
     0::0000022d 00              ??         00h
     0::0000022e 00              ??         00h
     0::0000022f 00              ??         00h
     0::00000230 00              ??         00h                                              ?  ->  unallocated_0::00000200
     0::00000231 02              ??         02h                                              ?  ->  unallocated_0::00000002
     0::00000232 00              ??         00h
     0::00000233 00              ??         00h
     0::00000234 00              ??         00h
     0::00000235 00              ??         00h
     0::00000236 00              ??         00h
     0::00000237 00              ??         00h
     0::00000238 00              ??         00h                                              ?  ->  unallocated_0::00000200
     0::00000239 02              ??         02h                                              ?  ->  unallocated_0::00000002
     0::0000023a 00              ??         00h
     0::0000023b 00              ??         00h
     0::0000023c 00              ??         00h
     0::0000023d 00              ??         00h
     0::0000023e 00              ??         00h
     0::0000023f 00              ??         00h
     0::00000240 00              ??         00h
     0::00000241 7e              ??         7Eh    ~
     0::00000242 00              ??         00h
     0::00000243 00              ??         00h
     0::00000244 00              ??         00h
     0::00000245 fe              ??         FEh
     0::00000246 ff              ??         FFh
     0::00000247 ff              ??         FFh
     0::00000248 6f              ??         6Fh    o                                         ?  ->  unallocated_0::0000026f
     0::00000249 02              ??         02h                                              ?  ->  unallocated_0::00000002
     0::0000024a 00              ??         00h
     0::0000024b 00              ??         00h
     0::0000024c 00              ??         00h
     0::0000024d 00              ??         00h
     0::0000024e 00              ??         00h
     0::0000024f 00              ??         00h
     0::00000250 00              ??         00h
     0::00000251 c0              ??         C0h                                              ?  ->  unallocated_0::000006c0
     0::00000252 06              ??         06h
     0::00000253 00              ??         00h
     0::00000254 00              ??         00h
     0::00000255 00              ??         00h
     0::00000256 00              ??         00h
     0::00000257 00              ??         00h
     0::00000258 00              ??         00h
     0::00000259 c0              ??         C0h                                              ?  ->  unallocated_0::000006c0
     0::0000025a 06              ??         06h
     0::0000025b 00              ??         00h
     0::0000025c 00              ??         00h
     0::0000025d 00              ??         00h
     0::0000025e 00              ??         00h
     0::0000025f 00              ??         00h
     0::00000260 00              ??         00h
     0::00000261 60              ??         60h    `                                         ?  ->  unallocated_0::00000060
     0::00000262 00              ??         00h
     0::00000263 00              ??         00h
     0::00000264 00              ??         00h
     0::00000265 00              ??         00h
     0::00000266 00              ??         00h
     0::00000267 00              ??         00h
     0::00000268 00              ??         00h
     0::00000269 07              ??         07h
     0::0000026a 00              ??         00h
     0::0000026b 00              ??         00h
     0::0000026c 00              ??         00h
     0::0000026d 01              ??         01h
     0::0000026e 00              ??         00h
     0::0000026f 00              ??         00h
     0::00000270 00              ??         00h                                              ?  ->  unallocated_0::00000800
     0::00000271 08              ??         08h                                              ?  ->  unallocated_0::00000008
     0::00000272 00              ??         00h
     0::00000273 00              ??         00h
     0::00000274 00              ??         00h
     0::00000275 00              ??         00h
     0::00000276 00              ??         00h
     0::00000277 00              ??         00h
     0::00000278 00              ??         00h
     0::00000279 00              ??         00h
     0::0000027a 00              ??         00h
     0::0000027b 00              ??         00h
     0::0000027c 00              ??         00h
     0::0000027d 00              ??         00h
     0::0000027e 00              ??         00h
     0::0000027f 00              ??         00h
     0::00000280 00              ??         00h
     0::00000281 8d              ??         8Dh
     0::00000282 00              ??         00h
     0::00000283 00              ??         00h
     0::00000284 00              ??         00h
     0::00000285 04              ??         04h
     0::00000286 00              ??         00h
     0::00000287 00              ??         00h
     0::00000288 00              ??         00h                                              ?  ->  unallocated_0::00000200
     0::00000289 02              ??         02h                                              ?  ->  unallocated_0::00000002
     0::0000028a 00              ??         00h
     0::0000028b 00              ??         00h
     0::0000028c 00              ??         00h
     0::0000028d 00              ??         00h
     0::0000028e 00              ??         00h
     0::0000028f 00              ??         00h
     0::00000290 00              ??         00h
     0::00000291 20              ??         20h                                              ?  ->  unallocated_0::00000720
     0::00000292 07              ??         07h
     0::00000293 00              ??         00h
     0::00000294 00              ??         00h
     0::00000295 00              ??         00h
     0::00000296 00              ??         00h
     0::00000297 00              ??         00h
     0::00000298 00              ??         00h
     0::00000299 20              ??         20h                                              ?  ->  unallocated_0::00000720
     0::0000029a 07              ??         07h
     0::0000029b 00              ??         00h
     0::0000029c 00              ??         00h
     0::0000029d 00              ??         00h
     0::0000029e 00              ??         00h
     0::0000029f 00              ??         00h
     0::000002a0 00              ??         00h
     0::000002a1 f0              ??         F0h                                              ?  ->  unallocated_0::000000f0
     0::000002a2 00              ??         00h
     0::000002a3 00              ??         00h
     0::000002a4 00              ??         00h
     0::000002a5 00              ??         00h
     0::000002a6 00              ??         00h
     0::000002a7 00              ??         00h
     0::000002a8 00              ??         00h                                              ?  ->  unallocated_0::00000600
     0::000002a9 06              ??         06h                                              ?  ->  unallocated_0::00000006
     0::000002aa 00              ??         00h
     0::000002ab 00              ??         00h
     0::000002ac 00              ??         00h
     0::000002ad 00              ??         00h
     0::000002ae 00              ??         00h
     0::000002af 00              ??         00h
     0::000002b0 00              ??         00h                                              ?  ->  unallocated_0::00000800
     0::000002b1 08              ??         08h                                              ?  ->  unallocated_0::00000008
     0::000002b2 00              ??         00h
     0::000002b3 00              ??         00h
     0::000002b4 00              ??         00h
     0::000002b5 00              ??         00h
     0::000002b6 00              ??         00h
     0::000002b7 00              ??         00h
     0::000002b8 00              ??         00h
     0::000002b9 18              ??         18h                                              ?  ->  unallocated_0::00000018
     0::000002ba 00              ??         00h
     0::000002bb 00              ??         00h
     0::000002bc 00              ??         00h
     0::000002bd 00              ??         00h
     0::000002be 00              ??         00h
     0::000002bf 00              ??         00h
     0::000002c0 00              ??         00h
     0::000002c1 97              ??         97h
     0::000002c2 00              ??         00h
     0::000002c3 00              ??         00h
     0::000002c4 00              ??         00h
     0::000002c5 04              ??         04h
     0::000002c6 00              ??         00h
     0::000002c7 00              ??         00h
     0::000002c8 00              ??         00h
     0::000002c9 42              ??         42h    B                                         ?  ->  unallocated_0::00000042
     0::000002ca 00              ??         00h
     0::000002cb 00              ??         00h
     0::000002cc 00              ??         00h
     0::000002cd 00              ??         00h
     0::000002ce 00              ??         00h
     0::000002cf 00              ??         00h
     0::000002d0 00              ??         00h
     0::000002d1 10              ??         10h                                              ?  ->  unallocated_0::00000810
     0::000002d2 08              ??         08h
     0::000002d3 00              ??         00h
     0::000002d4 00              ??         00h
     0::000002d5 00              ??         00h
     0::000002d6 00              ??         00h
     0::000002d7 00              ??         00h
     0::000002d8 00              ??         00h
     0::000002d9 10              ??         10h                                              ?  ->  unallocated_0::00000810
     0::000002da 08              ??         08h
     0::000002db 00              ??         00h
     0::000002dc 00              ??         00h
     0::000002dd 00              ??         00h
     0::000002de 00              ??         00h
     0::000002df 00              ??         00h
     0::000002e0 00              ??         00h
     0::000002e1 f0              ??         F0h                                              ?  ->  unallocated_0::000000f0
     0::000002e2 00              ??         00h
     0::000002e3 00              ??         00h
     0::000002e4 00              ??         00h
     0::000002e5 00              ??         00h
     0::000002e6 00              ??         00h
     0::000002e7 00              ??         00h
     0::000002e8 00              ??         00h
     0::000002e9 06              ??         06h
     0::000002ea 00              ??         00h
     0::000002eb 00              ??         00h
     0::000002ec 00              ??         00h
     0::000002ed 18              ??         18h
     0::000002ee 00              ??         00h
     0::000002ef 00              ??         00h
     0::000002f0 00              ??         00h                                              ?  ->  unallocated_0::00000800
     0::000002f1 08              ??         08h                                              ?  ->  unallocated_0::00000008
     0::000002f2 00              ??         00h
     0::000002f3 00              ??         00h
     0::000002f4 00              ??         00h
     0::000002f5 00              ??         00h
     0::000002f6 00              ??         00h
     0::000002f7 00              ??         00h
     0::000002f8 00              ??         00h
     0::000002f9 18              ??         18h                                              ?  ->  unallocated_0::00000018
     0::000002fa 00              ??         00h
     0::000002fb 00              ??         00h
     0::000002fc 00              ??         00h
     0::000002fd 00              ??         00h
     0::000002fe 00              ??         00h
     0::000002ff 00              ??         00h
     0::00000300 00              ??         00h
     0::00000301 a1              ??         A1h
     0::00000302 00              ??         00h
     0::00000303 00              ??         00h
     0::00000304 00              ??         00h
     0::00000305 01              ??         01h
     0::00000306 00              ??         00h
     0::00000307 00              ??         00h
     0::00000308 00              ??         00h                                              ?  ->  unallocated_0::00000600
     0::00000309 06              ??         06h                                              ?  ->  unallocated_0::00000006
     0::0000030a 00              ??         00h
     0::0000030b 00              ??         00h
     0::0000030c 00              ??         00h
     0::0000030d 00              ??         00h
     0::0000030e 00              ??         00h
     0::0000030f 00              ??         00h
     0::00000310 00              ??         00h
     0::00000311 00              ??         00h                                              ?  ->  unallocated_0::00001000
     0::00000312 10              ??         10h                                              ?  ->  unallocated_0::00000010
     0::00000313 00              ??         00h
     0::00000314 00              ??         00h
     0::00000315 00              ??         00h
     0::00000316 00              ??         00h
     0::00000317 00              ??         00h
     0::00000318 00              ??         00h
     0::00000319 00              ??         00h                                              ?  ->  unallocated_0::00001000
     0::0000031a 10              ??         10h
     0::0000031b 00              ??         00h
     0::0000031c 00              ??         00h
     0::0000031d 00              ??         00h
     0::0000031e 00              ??         00h
     0::0000031f 00              ??         00h
     0::00000320 00              ??         00h
     0::00000321 1b              ??         1Bh                                              ?  ->  unallocated_0::0000001b
     0::00000322 00              ??         00h
     0::00000323 00              ??         00h
     0::00000324 00              ??         00h
     0::00000325 00              ??         00h
     0::00000326 00              ??         00h
     0::00000327 00              ??         00h
     0::00000328 00              ??         00h
     0::00000329 00              ??         00h
     0::0000032a 00              ??         00h
     0::0000032b 00              ??         00h
     0::0000032c 00              ??         00h
     0::0000032d 00              ??         00h
     0::0000032e 00              ??         00h
     0::0000032f 00              ??         00h
     0::00000330 00              ??         00h                                              ?  ->  unallocated_0::00000400
     0::00000331 04              ??         04h                                              ?  ->  unallocated_0::00000004
     0::00000332 00              ??         00h
     0::00000333 00              ??         00h
     0::00000334 00              ??         00h
     0::00000335 00              ??         00h
     0::00000336 00              ??         00h
     0::00000337 00              ??         00h
     0::00000338 00              ??         00h
     0::00000339 00              ??         00h
     0::0000033a 00              ??         00h
     0::0000033b 00              ??         00h
     0::0000033c 00              ??         00h
     0::0000033d 00              ??         00h
     0::0000033e 00              ??         00h
     0::0000033f 00              ??         00h
     0::00000340 00              ??         00h
     0::00000341 9c              ??         9Ch
     0::00000342 00              ??         00h
     0::00000343 00              ??         00h
     0::00000344 00              ??         00h
     0::00000345 01              ??         01h
     0::00000346 00              ??         00h
     0::00000347 00              ??         00h
     0::00000348 00              ??         00h                                              ?  ->  unallocated_0::00000600
     0::00000349 06              ??         06h                                              ?  ->  unallocated_0::00000006
     0::0000034a 00              ??         00h
     0::0000034b 00              ??         00h
     0::0000034c 00              ??         00h
     0::0000034d 00              ??         00h
     0::0000034e 00              ??         00h
     0::0000034f 00              ??         00h
     0::00000350 00              ??         00h
     0::00000351 20              ??         20h                                              ?  ->  unallocated_0::00001020
     0::00000352 10              ??         10h
     0::00000353 00              ??         00h
     0::00000354 00              ??         00h
     0::00000355 00              ??         00h
     0::00000356 00              ??         00h
     0::00000357 00              ??         00h
     0::00000358 00              ??         00h
     0::00000359 20              ??         20h                                              ?  ->  unallocated_0::00001020
     0::0000035a 10              ??         10h
     0::0000035b 00              ??         00h
     0::0000035c 00              ??         00h
     0::0000035d 00              ??         00h
     0::0000035e 00              ??         00h
     0::0000035f 00              ??         00h
     0::00000360 00              ??         00h
     0::00000361 b0              ??         B0h                                              ?  ->  unallocated_0::000000b0
     0::00000362 00              ??         00h
     0::00000363 00              ??         00h
     0::00000364 00              ??         00h
     0::00000365 00              ??         00h
     0::00000366 00              ??         00h
     0::00000367 00              ??         00h
     0::00000368 00              ??         00h
     0::00000369 00              ??         00h
     0::0000036a 00              ??         00h
     0::0000036b 00              ??         00h
     0::0000036c 00              ??         00h
     0::0000036d 00              ??         00h
     0::0000036e 00              ??         00h
     0::0000036f 00              ??         00h
     0::00000370 00              ??         00h                                              ?  ->  unallocated_0::00001000
     0::00000371 10              ??         10h                                              ?  ->  unallocated_0::00000010
     0::00000372 00              ??         00h
     0::00000373 00              ??         00h
     0::00000374 00              ??         00h
     0::00000375 00              ??         00h
     0::00000376 00              ??         00h
     0::00000377 00              ??         00h
     0::00000378 00              ??         00h                                              ?  ->  unallocated_0::00001000
     0::00000379 10              ??         10h                                              ?  ->  unallocated_0::00000010
     0::0000037a 00              ??         00h
     0::0000037b 00              ??         00h
     0::0000037c 00              ??         00h
     0::0000037d 00              ??         00h
     0::0000037e 00              ??         00h
     0::0000037f 00              ??         00h
     0::00000380 00              ??         00h
     0::00000381 a7              ??         A7h
     0::00000382 00              ??         00h
     0::00000383 00              ??         00h
     0::00000384 00              ??         00h
     0::00000385 01              ??         01h
     0::00000386 00              ??         00h
     0::00000387 00              ??         00h
     0::00000388 00              ??         00h                                              ?  ->  unallocated_0::00000600
     0::00000389 06              ??         06h                                              ?  ->  unallocated_0::00000006
     0::0000038a 00              ??         00h
     0::0000038b 00              ??         00h
     0::0000038c 00              ??         00h
     0::0000038d 00              ??         00h
     0::0000038e 00              ??         00h
     0::0000038f 00              ??         00h
     0::00000390 00              ??         00h
     0::00000391 d0              ??         D0h                                              ?  ->  unallocated_0::000010d0
     0::00000392 10              ??         10h
     0::00000393 00              ??         00h
     0::00000394 00              ??         00h
     0::00000395 00              ??         00h
     0::00000396 00              ??         00h
     0::00000397 00              ??         00h
     0::00000398 00              ??         00h
     0::00000399 d0              ??         D0h                                              ?  ->  unallocated_0::000010d0
     0::0000039a 10              ??         10h
     0::0000039b 00              ??         00h
     0::0000039c 00              ??         00h
     0::0000039d 00              ??         00h
     0::0000039e 00              ??         00h
     0::0000039f 00              ??         00h
     0::000003a0 00              ??         00h                                              ?  ->  unallocated_0::00001000
     0::000003a1 10              ??         10h                                              ?  ->  unallocated_0::00000010
     0::000003a2 00              ??         00h
     0::000003a3 00              ??         00h
     0::000003a4 00              ??         00h
     0::000003a5 00              ??         00h
     0::000003a6 00              ??         00h
     0::000003a7 00              ??         00h
     0::000003a8 00              ??         00h
     0::000003a9 00              ??         00h
     0::000003aa 00              ??         00h
     0::000003ab 00              ??         00h
     0::000003ac 00              ??         00h
     0::000003ad 00              ??         00h
     0::000003ae 00              ??         00h
     0::000003af 00              ??         00h
     0::000003b0 00              ??         00h                                              ?  ->  unallocated_0::00001000
     0::000003b1 10              ??         10h                                              ?  ->  unallocated_0::00000010
     0::000003b2 00              ??         00h
     0::000003b3 00              ??         00h
     0::000003b4 00              ??         00h
     0::000003b5 00              ??         00h
     0::000003b6 00              ??         00h
     0::000003b7 00              ??         00h
     0::000003b8 00              ??         00h                                              ?  ->  unallocated_0::00001000
     0::000003b9 10              ??         10h                                              ?  ->  unallocated_0::00000010
     0::000003ba 00              ??         00h
     0::000003bb 00              ??         00h
     0::000003bc 00              ??         00h
     0::000003bd 00              ??         00h
     0::000003be 00              ??         00h
     0::000003bf 00              ??         00h
     0::000003c0 00              ??         00h
     0::000003c1 b0              ??         B0h
     0::000003c2 00              ??         00h
     0::000003c3 00              ??         00h
     0::000003c4 00              ??         00h
     0::000003c5 01              ??         01h
     0::000003c6 00              ??         00h
     0::000003c7 00              ??         00h
     0::000003c8 00              ??         00h                                              ?  ->  unallocated_0::00000600
     0::000003c9 06              ??         06h                                              ?  ->  unallocated_0::00000006
     0::000003ca 00              ??         00h
     0::000003cb 00              ??         00h
     0::000003cc 00              ??         00h
     0::000003cd 00              ??         00h
     0::000003ce 00              ??         00h
     0::000003cf 00              ??         00h
     0::000003d0 00              ??         00h
     0::000003d1 e0              ??         E0h                                              ?  ->  unallocated_0::000010e0
     0::000003d2 10              ??         10h
     0::000003d3 00              ??         00h
     0::000003d4 00              ??         00h
     0::000003d5 00              ??         00h
     0::000003d6 00              ??         00h
     0::000003d7 00              ??         00h
     0::000003d8 00              ??         00h
     0::000003d9 e0              ??         E0h                                              ?  ->  unallocated_0::000010e0
     0::000003da 10              ??         10h
     0::000003db 00              ??         00h
     0::000003dc 00              ??         00h
     0::000003dd 00              ??         00h
     0::000003de 00              ??         00h
     0::000003df 00              ??         00h
     0::000003e0 00              ??         00h
     0::000003e1 a0              ??         A0h                                              ?  ->  unallocated_0::000000a0
     0::000003e2 00              ??         00h
     0::000003e3 00              ??         00h
     0::000003e4 00              ??         00h
     0::000003e5 00              ??         00h
     0::000003e6 00              ??         00h
     0::000003e7 00              ??         00h
     0::000003e8 00              ??         00h
     0::000003e9 00              ??         00h
     0::000003ea 00              ??         00h
     0::000003eb 00              ??         00h
     0::000003ec 00              ??         00h
     0::000003ed 00              ??         00h
     0::000003ee 00              ??         00h
     0::000003ef 00              ??         00h
     0::000003f0 00              ??         00h                                              ?  ->  unallocated_0::00001000
     0::000003f1 10              ??         10h                                              ?  ->  unallocated_0::00000010
     0::000003f2 00              ??         00h
     0::000003f3 00              ??         00h
     0::000003f4 00              ??         00h
     0::000003f5 00              ??         00h
     0::000003f6 00              ??         00h
     0::000003f7 00              ??         00h
     0::000003f8 00              ??         00h                                              ?  ->  unallocated_0::00001000
     0::000003f9 10              ??         10h                                              ?  ->  unallocated_0::00000010
     0::000003fa 00              ??         00h
     0::000003fb 00              ??         00h
     0::000003fc 00              ??         00h
     0::000003fd 00              ??         00h
     0::000003fe 00              ??         00h
     0::000003ff 00              ??         00h
     0::00000400 00              ??         00h
     0::00000401 b9              ??         B9h
     0::00000402 00              ??         00h
     0::00000403 00              ??         00h
     0::00000404 00              ??         00h
     0::00000405 01              ??         01h
     0::00000406 00              ??         00h
     0::00000407 00              ??         00h
     0::00000408 00              ??         00h                                              ?  ->  unallocated_0::00000600
     0::00000409 06              ??         06h                                              ?  ->  unallocated_0::00000006
     0::0000040a 00              ??         00h
     0::0000040b 00              ??         00h
     0::0000040c 00              ??         00h
     0::0000040d 00              ??         00h
     0::0000040e 00              ??         00h
     0::0000040f 00              ??         00h
     0::00000410 00              ??         00h
     0::00000411 80              ??         80h                                              ?  ->  unallocated_0::00001180
     0::00000412 11              ??         11h
     0::00000413 00              ??         00h
     0::00000414 00              ??         00h
     0::00000415 00              ??         00h
     0::00000416 00              ??         00h
     0::00000417 00              ??         00h
     0::00000418 00              ??         00h
     0::00000419 80              ??         80h                                              ?  ->  unallocated_0::00001180
     0::0000041a 11              ??         11h
     0::0000041b 00              ??         00h
     0::0000041c 00              ??         00h
     0::0000041d 00              ??         00h
     0::0000041e 00              ??         00h
     0::0000041f 00              ??         00h
     0::00000420 00              ??         00h
     0::00000421 70              ??         70h    p                                         ?  ->  unallocated_0::00000370
     0::00000422 03              ??         03h                                              ?  ->  unallocated_0::00000003
     0::00000423 00              ??         00h
     0::00000424 00              ??         00h
     0::00000425 00              ??         00h
     0::00000426 00              ??         00h
     0::00000427 00              ??         00h
     0::00000428 00              ??         00h
     0::00000429 00              ??         00h
     0::0000042a 00              ??         00h
     0::0000042b 00              ??         00h
     0::0000042c 00              ??         00h
     0::0000042d 00              ??         00h
     0::0000042e 00              ??         00h
     0::0000042f 00              ??         00h
     0::00000430 00              ??         00h                                              ?  ->  unallocated_0::00001000
     0::00000431 10              ??         10h                                              ?  ->  unallocated_0::00000010
     0::00000432 00              ??         00h
     0::00000433 00              ??         00h
     0::00000434 00              ??         00h
     0::00000435 00              ??         00h
     0::00000436 00              ??         00h
     0::00000437 00              ??         00h
     0::00000438 00              ??         00h
     0::00000439 00              ??         00h
     0::0000043a 00              ??         00h
     0::0000043b 00              ??         00h
     0::0000043c 00              ??         00h
     0::0000043d 00              ??         00h
     0::0000043e 00              ??         00h
     0::0000043f 00              ??         00h
     0::00000440 00              ??         00h
     0::00000441 bf              ??         BFh
     0::00000442 00              ??         00h
     0::00000443 00              ??         00h
     0::00000444 00              ??         00h
     0::00000445 01              ??         01h
     0::00000446 00              ??         00h
     0::00000447 00              ??         00h
     0::00000448 00              ??         00h                                              ?  ->  unallocated_0::00000600
     0::00000449 06              ??         06h                                              ?  ->  unallocated_0::00000006
     0::0000044a 00              ??         00h
     0::0000044b 00              ??         00h
     0::0000044c 00              ??         00h
     0::0000044d 00              ??         00h
     0::0000044e 00              ??         00h
     0::0000044f 00              ??         00h
     0::00000450 00              ??         00h
     0::00000451 f0              ??         F0h                                              ?  ->  unallocated_0::000014f0
     0::00000452 14              ??         14h
     0::00000453 00              ??         00h
     0::00000454 00              ??         00h
     0::00000455 00              ??         00h
     0::00000456 00              ??         00h
     0::00000457 00              ??         00h
     0::00000458 00              ??         00h
     0::00000459 f0              ??         F0h                                              ?  ->  unallocated_0::000014f0
     0::0000045a 14              ??         14h
     0::0000045b 00              ??         00h
     0::0000045c 00              ??         00h
     0::0000045d 00              ??         00h
     0::0000045e 00              ??         00h
     0::0000045f 00              ??         00h
     0::00000460 00              ??         00h                                              ?  ->  unallocated_0::00000d00
     0::00000461 0d              ??         0Dh                                              ?  ->  unallocated_0::0000000d
     0::00000462 00              ??         00h
     0::00000463 00              ??         00h
     0::00000464 00              ??         00h
     0::00000465 00              ??         00h
     0::00000466 00              ??         00h
     0::00000467 00              ??         00h
     0::00000468 00              ??         00h
     0::00000469 00              ??         00h
     0::0000046a 00              ??         00h
     0::0000046b 00              ??         00h
     0::0000046c 00              ??         00h
     0::0000046d 00              ??         00h
     0::0000046e 00              ??         00h
     0::0000046f 00              ??         00h
     0::00000470 00              ??         00h                                              ?  ->  unallocated_0::00000400
     0::00000471 04              ??         04h                                              ?  ->  unallocated_0::00000004
     0::00000472 00              ??         00h
     0::00000473 00              ??         00h
     0::00000474 00              ??         00h
     0::00000475 00              ??         00h
     0::00000476 00              ??         00h
     0::00000477 00              ??         00h
     0::00000478 00              ??         00h
     0::00000479 00              ??         00h
     0::0000047a 00              ??         00h
     0::0000047b 00              ??         00h
     0::0000047c 00              ??         00h
     0::0000047d 00              ??         00h
     0::0000047e 00              ??         00h
     0::0000047f 00              ??         00h
     0::00000480 00              ??         00h
     0::00000481 c5              ??         C5h
     0::00000482 00              ??         00h
     0::00000483 00              ??         00h
     0::00000484 00              ??         00h
     0::00000485 01              ??         01h
     0::00000486 00              ??         00h
     0::00000487 00              ??         00h
     0::00000488 00              ??         00h                                              ?  ->  unallocated_0::00000200
     0::00000489 02              ??         02h                                              ?  ->  unallocated_0::00000002
     0::0000048a 00              ??         00h
     0::0000048b 00              ??         00h
     0::0000048c 00              ??         00h
     0::0000048d 00              ??         00h
     0::0000048e 00              ??         00h
     0::0000048f 00              ??         00h
     0::00000490 00              ??         00h
     0::00000491 00              ??         00h
     0::00000492 20              ??         20h                                              ?  ->  unallocated_0::00000020
     0::00000493 00              ??         00h
     0::00000494 00              ??         00h
     0::00000495 00              ??         00h
     0::00000496 00              ??         00h
     0::00000497 00              ??         00h
     0::00000498 00              ??         00h
     0::00000499 00              ??         00h
     0::0000049a 20              ??         20h     
     0::0000049b 00              ??         00h
     0::0000049c 00              ??         00h
     0::0000049d 00              ??         00h
     0::0000049e 00              ??         00h
     0::0000049f 00              ??         00h
     0::000004a0 00              ??         00h
     0::000004a1 6d              ??         6Dh    m                                         ?  ->  unallocated_0::0000026d
     0::000004a2 02              ??         02h                                              ?  ->  unallocated_0::00000002
     0::000004a3 00              ??         00h
     0::000004a4 00              ??         00h
     0::000004a5 00              ??         00h
     0::000004a6 00              ??         00h
     0::000004a7 00              ??         00h
     0::000004a8 00              ??         00h
     0::000004a9 00              ??         00h
     0::000004aa 00              ??         00h
     0::000004ab 00              ??         00h
     0::000004ac 00              ??         00h
     0::000004ad 00              ??         00h
     0::000004ae 00              ??         00h
     0::000004af 00              ??         00h
     0::000004b0 00              ??         00h                                              ?  ->  unallocated_0::00000800
     0::000004b1 08              ??         08h                                              ?  ->  unallocated_0::00000008
     0::000004b2 00              ??         00h
     0::000004b3 00              ??         00h
     0::000004b4 00              ??         00h
     0::000004b5 00              ??         00h
     0::000004b6 00              ??         00h
     0::000004b7 00              ??         00h
     0::000004b8 00              ??         00h
     0::000004b9 00              ??         00h
     0::000004ba 00              ??         00h
     0::000004bb 00              ??         00h
     0::000004bc 00              ??         00h
     0::000004bd 00              ??         00h
     0::000004be 00              ??         00h
     0::000004bf 00              ??         00h
     0::000004c0 00              ??         00h
     0::000004c1 cd              ??         CDh
     0::000004c2 00              ??         00h
     0::000004c3 00              ??         00h
     0::000004c4 00              ??         00h
     0::000004c5 01              ??         01h
     0::000004c6 00              ??         00h
     0::000004c7 00              ??         00h
     0::000004c8 00              ??         00h                                              ?  ->  unallocated_0::00000200
     0::000004c9 02              ??         02h                                              ?  ->  unallocated_0::00000002
     0::000004ca 00              ??         00h
     0::000004cb 00              ??         00h
     0::000004cc 00              ??         00h
     0::000004cd 00              ??         00h
     0::000004ce 00              ??         00h
     0::000004cf 00              ??         00h
     0::000004d0 00              ??         00h
     0::000004d1 70              ??         70h    p
     0::000004d2 22              ??         22h    "
     0::000004d3 00              ??         00h
     0::000004d4 00              ??         00h
     0::000004d5 00              ??         00h
     0::000004d6 00              ??         00h
     0::000004d7 00              ??         00h
     0::000004d8 00              ??         00h
     0::000004d9 70              ??         70h    p
     0::000004da 22              ??         22h    "
     0::000004db 00              ??         00h
     0::000004dc 00              ??         00h
     0::000004dd 00              ??         00h
     0::000004de 00              ??         00h
     0::000004df 00              ??         00h
     0::000004e0 00              ??         00h
     0::000004e1 4c              ??         4Ch    L                                         ?  ->  unallocated_0::0000004c
     0::000004e2 00              ??         00h
     0::000004e3 00              ??         00h
     0::000004e4 00              ??         00h
     0::000004e5 00              ??         00h
     0::000004e6 00              ??         00h
     0::000004e7 00              ??         00h
     0::000004e8 00              ??         00h
     0::000004e9 00              ??         00h
     0::000004ea 00              ??         00h
     0::000004eb 00              ??         00h
     0::000004ec 00              ??         00h
     0::000004ed 00              ??         00h
     0::000004ee 00              ??         00h
     0::000004ef 00              ??         00h
     0::000004f0 00              ??         00h                                              ?  ->  unallocated_0::00000400
     0::000004f1 04              ??         04h                                              ?  ->  unallocated_0::00000004
     0::000004f2 00              ??         00h
     0::000004f3 00              ??         00h
     0::000004f4 00              ??         00h
     0::000004f5 00              ??         00h
     0::000004f6 00              ??         00h
     0::000004f7 00              ??         00h
     0::000004f8 00              ??         00h
     0::000004f9 00              ??         00h
     0::000004fa 00              ??         00h
     0::000004fb 00              ??         00h
     0::000004fc 00              ??         00h
     0::000004fd 00              ??         00h
     0::000004fe 00              ??         00h
     0::000004ff 00              ??         00h
     0::00000500 00              ??         00h
     0::00000501 db              ??         DBh
     0::00000502 00              ??         00h
     0::00000503 00              ??         00h
     0::00000504 00              ??         00h
     0::00000505 01              ??         01h
     0::00000506 00              ??         00h
     0::00000507 00              ??         00h
     0::00000508 00              ??         00h                                              ?  ->  unallocated_0::00000200
     0::00000509 02              ??         02h                                              ?  ->  unallocated_0::00000002
     0::0000050a 00              ??         00h
     0::0000050b 00              ??         00h
     0::0000050c 00              ??         00h
     0::0000050d 00              ??         00h
     0::0000050e 00              ??         00h
     0::0000050f 00              ??         00h
     0::00000510 00              ??         00h
     0::00000511 c0              ??         C0h
     0::00000512 22              ??         22h    "
     0::00000513 00              ??         00h
     0::00000514 00              ??         00h
     0::00000515 00              ??         00h
     0::00000516 00              ??         00h
     0::00000517 00              ??         00h
     0::00000518 00              ??         00h
     0::00000519 c0              ??         C0h
     0::0000051a 22              ??         22h    "
     0::0000051b 00              ??         00h
     0::0000051c 00              ??         00h
     0::0000051d 00              ??         00h
     0::0000051e 00              ??         00h
     0::0000051f 00              ??         00h
     0::00000520 00              ??         00h
     0::00000521 08              ??         08h                                              ?  ->  unallocated_0::00000108
     0::00000522 01              ??         01h                                              ?  ->  unallocated_0::00000001
     0::00000523 00              ??         00h
     0::00000524 00              ??         00h
     0::00000525 00              ??         00h
     0::00000526 00              ??         00h
     0::00000527 00              ??         00h
     0::00000528 00              ??         00h
     0::00000529 00              ??         00h
     0::0000052a 00              ??         00h
     0::0000052b 00              ??         00h
     0::0000052c 00              ??         00h
     0::0000052d 00              ??         00h
     0::0000052e 00              ??         00h
     0::0000052f 00              ??         00h
     0::00000530 00              ??         00h                                              ?  ->  unallocated_0::00000800
     0::00000531 08              ??         08h                                              ?  ->  unallocated_0::00000008
     0::00000532 00              ??         00h
     0::00000533 00              ??         00h
     0::00000534 00              ??         00h
     0::00000535 00              ??         00h
     0::00000536 00              ??         00h
     0::00000537 00              ??         00h
     0::00000538 00              ??         00h
     0::00000539 00              ??         00h
     0::0000053a 00              ??         00h
     0::0000053b 00              ??         00h
     0::0000053c 00              ??         00h
     0::0000053d 00              ??         00h
     0::0000053e 00              ??         00h
     0::0000053f 00              ??         00h
     0::00000540 00              ??         00h
     0::00000541 e5              ??         E5h
     0::00000542 00              ??         00h
     0::00000543 00              ??         00h
     0::00000544 00              ??         00h
     0::00000545 0e              ??         0Eh
     0::00000546 00              ??         00h
     0::00000547 00              ??         00h
     0::00000548 00              ??         00h                                              ?  ->  unallocated_0::00000300
     0::00000549 03              ??         03h                                              ?  ->  unallocated_0::00000003
     0::0000054a 00              ??         00h
     0::0000054b 00              ??         00h
     0::0000054c 00              ??         00h
     0::0000054d 00              ??         00h
     0::0000054e 00              ??         00h
     0::0000054f 00              ??         00h
     0::00000550 00              ??         00h
     0::00000551 60              ??         60h    `
     0::00000552 3d              ??         3Dh    =
     0::00000553 00              ??         00h
     0::00000554 00              ??         00h
     0::00000555 00              ??         00h
     0::00000556 00              ??         00h
     0::00000557 00              ??         00h
     0::00000558 00              ??         00h
     0::00000559 60              ??         60h    `
     0::0000055a 2d              ??         2Dh    -
     0::0000055b 00              ??         00h
     0::0000055c 00              ??         00h
     0::0000055d 00              ??         00h
     0::0000055e 00              ??         00h
     0::0000055f 00              ??         00h
     0::00000560 00              ??         00h                                              ?  ->  unallocated_0::00000800
     0::00000561 08              ??         08h                                              ?  ->  unallocated_0::00000008
     0::00000562 00              ??         00h
     0::00000563 00              ??         00h
     0::00000564 00              ??         00h
     0::00000565 00              ??         00h
     0::00000566 00              ??         00h
     0::00000567 00              ??         00h
     0::00000568 00              ??         00h
     0::00000569 00              ??         00h
     0::0000056a 00              ??         00h
     0::0000056b 00              ??         00h
     0::0000056c 00              ??         00h
     0::0000056d 00              ??         00h
     0::0000056e 00              ??         00h
     0::0000056f 00              ??         00h
     0::00000570 00              ??         00h                                              ?  ->  unallocated_0::00000800
     0::00000571 08              ??         08h                                              ?  ->  unallocated_0::00000008
     0::00000572 00              ??         00h
     0::00000573 00              ??         00h
     0::00000574 00              ??         00h
     0::00000575 00              ??         00h
     0::00000576 00              ??         00h
     0::00000577 00              ??         00h
     0::00000578 00              ??         00h                                              ?  ->  unallocated_0::00000800
     0::00000579 08              ??         08h                                              ?  ->  unallocated_0::00000008
     0::0000057a 00              ??         00h
     0::0000057b 00              ??         00h
     0::0000057c 00              ??         00h
     0::0000057d 00              ??         00h
     0::0000057e 00              ??         00h
     0::0000057f 00              ??         00h
     0::00000580 00              ??         00h
     0::00000581 f1              ??         F1h
     0::00000582 00              ??         00h
     0::00000583 00              ??         00h
     0::00000584 00              ??         00h
     0::00000585 0f              ??         0Fh
     0::00000586 00              ??         00h
     0::00000587 00              ??         00h
     0::00000588 00              ??         00h                                              ?  ->  unallocated_0::00000300
     0::00000589 03              ??         03h                                              ?  ->  unallocated_0::00000003
     0::0000058a 00              ??         00h
     0::0000058b 00              ??         00h
     0::0000058c 00              ??         00h
     0::0000058d 00              ??         00h
     0::0000058e 00              ??         00h
     0::0000058f 00              ??         00h
     0::00000590 00              ??         00h
     0::00000591 68              ??         68h    h
     0::00000592 3d              ??         3Dh    =
     0::00000593 00              ??         00h
     0::00000594 00              ??         00h
     0::00000595 00              ??         00h
     0::00000596 00              ??         00h
     0::00000597 00              ??         00h
     0::00000598 00              ??         00h
     0::00000599 68              ??         68h    h
     0::0000059a 2d              ??         2Dh    -
     0::0000059b 00              ??         00h
     0::0000059c 00              ??         00h
     0::0000059d 00              ??         00h
     0::0000059e 00              ??         00h
     0::0000059f 00              ??         00h
     0::000005a0 00              ??         00h                                              ?  ->  unallocated_0::00000800
     0::000005a1 08              ??         08h                                              ?  ->  unallocated_0::00000008
     0::000005a2 00              ??         00h
     0::000005a3 00              ??         00h
     0::000005a4 00              ??         00h
     0::000005a5 00              ??         00h
     0::000005a6 00              ??         00h
     0::000005a7 00              ??         00h
     0::000005a8 00              ??         00h
     0::000005a9 00              ??         00h
     0::000005aa 00              ??         00h
     0::000005ab 00              ??         00h
     0::000005ac 00              ??         00h
     0::000005ad 00              ??         00h
     0::000005ae 00              ??         00h
     0::000005af 00              ??         00h
     0::000005b0 00              ??         00h                                              ?  ->  unallocated_0::00000800
     0::000005b1 08              ??         08h                                              ?  ->  unallocated_0::00000008
     0::000005b2 00              ??         00h
     0::000005b3 00              ??         00h
     0::000005b4 00              ??         00h
     0::000005b5 00              ??         00h
     0::000005b6 00              ??         00h
     0::000005b7 00              ??         00h
     0::000005b8 00              ??         00h                                              ?  ->  unallocated_0::00000800
     0::000005b9 08              ??         08h                                              ?  ->  unallocated_0::00000008
     0::000005ba 00              ??         00h
     0::000005bb 00              ??         00h
     0::000005bc 00              ??         00h
     0::000005bd 00              ??         00h
     0::000005be 00              ??         00h
     0::000005bf 00              ??         00h
     0::000005c0 00              ??         00h
     0::000005c1 fd              ??         FDh
     0::000005c2 00              ??         00h
     0::000005c3 00              ??         00h
     0::000005c4 00              ??         00h
     0::000005c5 06              ??         06h
     0::000005c6 00              ??         00h
     0::000005c7 00              ??         00h
     0::000005c8 00              ??         00h                                              ?  ->  unallocated_0::00000300
     0::000005c9 03              ??         03h                                              ?  ->  unallocated_0::00000003
     0::000005ca 00              ??         00h
     0::000005cb 00              ??         00h
     0::000005cc 00              ??         00h
     0::000005cd 00              ??         00h
     0::000005ce 00              ??         00h
     0::000005cf 00              ??         00h
     0::000005d0 00              ??         00h
     0::000005d1 70              ??         70h    p
     0::000005d2 3d              ??         3Dh    =
     0::000005d3 00              ??         00h
     0::000005d4 00              ??         00h
     0::000005d5 00              ??         00h
     0::000005d6 00              ??         00h
     0::000005d7 00              ??         00h
     0::000005d8 00              ??         00h
     0::000005d9 70              ??         70h    p
     0::000005da 2d              ??         2Dh    -                                         ?  ->  unallocated_0::0000002d
     0::000005db 00              ??         00h
     0::000005dc 00              ??         00h
     0::000005dd 00              ??         00h
     0::000005de 00              ??         00h
     0::000005df 00              ??         00h
     0::000005e0 00              ??         00h
     0::000005e1 00              ??         00h                                              ?  ->  unallocated_0::00000200
     0::000005e2 02              ??         02h
     0::000005e3 00              ??         00h
     0::000005e4 00              ??         00h
     0::000005e5 00              ??         00h
     0::000005e6 00              ??         00h
     0::000005e7 00              ??         00h
     0::000005e8 00              ??         00h                                              ?  ->  unallocated_0::00000700
     0::000005e9 07              ??         07h                                              ?  ->  unallocated_0::00000007
     0::000005ea 00              ??         00h
     0::000005eb 00              ??         00h
     0::000005ec 00              ??         00h
     0::000005ed 00              ??         00h
     0::000005ee 00              ??         00h
     0::000005ef 00              ??         00h
     0::000005f0 00              ??         00h                                              ?  ->  unallocated_0::00000800
     0::000005f1 08              ??         08h                                              ?  ->  unallocated_0::00000008
     0::000005f2 00              ??         00h
     0::000005f3 00              ??         00h
     0::000005f4 00              ??         00h
     0::000005f5 00              ??         00h
     0::000005f6 00              ??         00h
     0::000005f7 00              ??         00h
     0::000005f8 00              ??         00h                                              ?  ->  unallocated_0::00001000
     0::000005f9 10              ??         10h                                              ?  ->  unallocated_0::00000010
     0::000005fa 00              ??         00h
     0::000005fb 00              ??         00h
     0::000005fc 00              ??         00h
     0::000005fd 00              ??         00h
     0::000005fe 00              ??         00h
     0::000005ff 00              ??         00h
     0::00000600 00              ??         00h
     0::00000601 ab              ??         ABh
     0::00000602 00              ??         00h
     0::00000603 00              ??         00h
     0::00000604 00              ??         00h
     0::00000605 01              ??         01h
     0::00000606 00              ??         00h
     0::00000607 00              ??         00h
     0::00000608 00              ??         00h                                              ?  ->  unallocated_0::00000300
     0::00000609 03              ??         03h                                              ?  ->  unallocated_0::00000003
     0::0000060a 00              ??         00h
     0::0000060b 00              ??         00h
     0::0000060c 00              ??         00h
     0::0000060d 00              ??         00h
     0::0000060e 00              ??         00h
     0::0000060f 00              ??         00h
     0::00000610 00              ??         00h
     0::00000611 70              ??         70h    p
     0::00000612 3f              ??         3Fh    ?
     0::00000613 00              ??         00h
     0::00000614 00              ??         00h
     0::00000615 00              ??         00h
     0::00000616 00              ??         00h
     0::00000617 00              ??         00h
     0::00000618 00              ??         00h
     0::00000619 70              ??         70h    p
     0::0000061a 2f              ??         2Fh    /
     0::0000061b 00              ??         00h
     0::0000061c 00              ??         00h
     0::0000061d 00              ??         00h
     0::0000061e 00              ??         00h
     0::0000061f 00              ??         00h
     0::00000620 00              ??         00h
     0::00000621 90              ??         90h                                              ?  ->  unallocated_0::00000090
     0::00000622 00              ??         00h
     0::00000623 00              ??         00h
     0::00000624 00              ??         00h
     0::00000625 00              ??         00h
     0::00000626 00              ??         00h
     0::00000627 00              ??         00h
     0::00000628 00              ??         00h
     0::00000629 00              ??         00h
     0::0000062a 00              ??         00h
     0::0000062b 00              ??         00h
     0::0000062c 00              ??         00h
     0::0000062d 00              ??         00h
     0::0000062e 00              ??         00h
     0::0000062f 00              ??         00h
     0::00000630 00              ??         00h                                              ?  ->  unallocated_0::00000800
     0::00000631 08              ??         08h                                              ?  ->  unallocated_0::00000008
     0::00000632 00              ??         00h
     0::00000633 00              ??         00h
     0::00000634 00              ??         00h
     0::00000635 00              ??         00h
     0::00000636 00              ??         00h
     0::00000637 00              ??         00h
     0::00000638 00              ??         00h                                              ?  ->  unallocated_0::00000800
     0::00000639 08              ??         08h                                              ?  ->  unallocated_0::00000008
     0::0000063a 00              ??         00h
     0::0000063b 00              ??         00h
     0::0000063c 00              ??         00h
     0::0000063d 00              ??         00h
     0::0000063e 00              ??         00h
     0::0000063f 00              ??         00h
     0::00000640 00              ??         00h
     0::00000641 06              ??         06h
     0::00000642 01              ??         01h
     0::00000643 00              ??         00h
     0::00000644 00              ??         00h
     0::00000645 01              ??         01h
     0::00000646 00              ??         00h
     0::00000647 00              ??         00h
     0::00000648 00              ??         00h                                              ?  ->  unallocated_0::00000300
     0::00000649 03              ??         03h                                              ?  ->  unallocated_0::00000003
     0::0000064a 00              ??         00h
     0::0000064b 00              ??         00h
     0::0000064c 00              ??         00h
     0::0000064d 00              ??         00h
     0::0000064e 00              ??         00h
     0::0000064f 00              ??         00h
     0::00000650 00              ??         00h
     0::00000651 00              ??         00h
     0::00000652 40              ??         40h    @                                         ?  ->  unallocated_0::00000040
     0::00000653 00              ??         00h
     0::00000654 00              ??         00h
     0::00000655 00              ??         00h
     0::00000656 00              ??         00h
     0::00000657 00              ??         00h
     0::00000658 00              ??         00h
     0::00000659 00              ??         00h
     0::0000065a 30              ??         30h    0
     0::0000065b 00              ??         00h
     0::0000065c 00              ??         00h
     0::0000065d 00              ??         00h
     0::0000065e 00              ??         00h
     0::0000065f 00              ??         00h
     0::00000660 00              ??         00h                                              ?  ->  unallocated_0::00001000
     0::00000661 10              ??         10h                                              ?  ->  unallocated_0::00000010
     0::00000662 00              ??         00h
     0::00000663 00              ??         00h
     0::00000664 00              ??         00h
     0::00000665 00              ??         00h
     0::00000666 00              ??         00h
     0::00000667 00              ??         00h
     0::00000668 00              ??         00h
     0::00000669 00              ??         00h
     0::0000066a 00              ??         00h
     0::0000066b 00              ??         00h
     0::0000066c 00              ??         00h
     0::0000066d 00              ??         00h
     0::0000066e 00              ??         00h
     0::0000066f 00              ??         00h
     0::00000670 00              ??         00h                                              ?  ->  unallocated_0::00000800
     0::00000671 08              ??         08h                                              ?  ->  unallocated_0::00000008
     0::00000672 00              ??         00h
     0::00000673 00              ??         00h
     0::00000674 00              ??         00h
     0::00000675 00              ??         00h
     0::00000676 00              ??         00h
     0::00000677 00              ??         00h
     0::00000678 00              ??         00h
     0::00000679 00              ??         00h
     0::0000067a 00              ??         00h
     0::0000067b 00              ??         00h
     0::0000067c 00              ??         00h
     0::0000067d 00              ??         00h
     0::0000067e 00              ??         00h
     0::0000067f 00              ??         00h
     0::00000680 00              ??         00h
     0::00000681 0c              ??         0Ch
     0::00000682 01              ??         01h
     0::00000683 00              ??         00h
     0::00000684 00              ??         00h
     0::00000685 08              ??         08h
     0::00000686 00              ??         00h
     0::00000687 00              ??         00h
     0::00000688 00              ??         00h                                              ?  ->  unallocated_0::00000300
     0::00000689 03              ??         03h                                              ?  ->  unallocated_0::00000003
     0::0000068a 00              ??         00h
     0::0000068b 00              ??         00h
     0::0000068c 00              ??         00h
     0::0000068d 00              ??         00h
     0::0000068e 00              ??         00h
     0::0000068f 00              ??         00h
     0::00000690 00              ??         00h
     0::00000691 10              ??         10h
     0::00000692 40              ??         40h    @
     0::00000693 00              ??         00h
     0::00000694 00              ??         00h
     0::00000695 00              ??         00h
     0::00000696 00              ??         00h
     0::00000697 00              ??         00h
     0::00000698 00              ??         00h
     0::00000699 10              ??         10h
     0::0000069a 30              ??         30h    0
     0::0000069b 00              ??         00h
     0::0000069c 00              ??         00h
     0::0000069d 00              ??         00h
     0::0000069e 00              ??         00h
     0::0000069f 00              ??         00h
     0::000006a0 00              ??         00h
     0::000006a1 20              ??         20h                                              ?  ->  unallocated_0::00000020
     0::000006a2 00              ??         00h
     0::000006a3 00              ??         00h
     0::000006a4 00              ??         00h
     0::000006a5 00              ??         00h
     0::000006a6 00              ??         00h
     0::000006a7 00              ??         00h
     0::000006a8 00              ??         00h
     0::000006a9 00              ??         00h
     0::000006aa 00              ??         00h
     0::000006ab 00              ??         00h
     0::000006ac 00              ??         00h
     0::000006ad 00              ??         00h
     0::000006ae 00              ??         00h
     0::000006af 00              ??         00h
     0::000006b0 00              ??         00h                                              ?  ->  unallocated_0::00001000
     0::000006b1 10              ??         10h                                              ?  ->  unallocated_0::00000010
     0::000006b2 00              ??         00h
     0::000006b3 00              ??         00h
     0::000006b4 00              ??         00h
     0::000006b5 00              ??         00h
     0::000006b6 00              ??         00h
     0::000006b7 00              ??         00h
     0::000006b8 00              ??         00h
     0::000006b9 00              ??         00h
     0::000006ba 00              ??         00h
     0::000006bb 00              ??         00h
     0::000006bc 00              ??         00h
     0::000006bd 00              ??         00h
     0::000006be 00              ??         00h
     0::000006bf 00              ??         00h
     0::000006c0 00              ??         00h
     0::000006c1 11              ??         11h
     0::000006c2 01              ??         01h
     0::000006c3 00              ??         00h
     0::000006c4 00              ??         00h
     0::000006c5 01              ??         01h
     0::000006c6 00              ??         00h
     0::000006c7 00              ??         00h
     0::000006c8 00              ??         00h
     0::000006c9 30              ??         30h    0                                         ?  ->  unallocated_0::00000030
     0::000006ca 00              ??         00h
     0::000006cb 00              ??         00h
     0::000006cc 00              ??         00h
     0::000006cd 00              ??         00h
     0::000006ce 00              ??         00h
     0::000006cf 00              ??         00h
     0::000006d0 00              ??         00h
     0::000006d1 00              ??         00h
     0::000006d2 00              ??         00h
     0::000006d3 00              ??         00h
     0::000006d4 00              ??         00h
     0::000006d5 00              ??         00h
     0::000006d6 00              ??         00h
     0::000006d7 00              ??         00h
     0::000006d8 00              ??         00h
     0::000006d9 10              ??         10h
     0::000006da 30              ??         30h    0
     0::000006db 00              ??         00h
     0::000006dc 00              ??         00h
     0::000006dd 00              ??         00h
     0::000006de 00              ??         00h
     0::000006df 00              ??         00h
     0::000006e0 00              ??         00h
     0::000006e1 2b              ??         2Bh    +                                         ?  ->  unallocated_0::0000002b
     0::000006e2 00              ??         00h
     0::000006e3 00              ??         00h
     0::000006e4 00              ??         00h
     0::000006e5 00              ??         00h
     0::000006e6 00              ??         00h
     0::000006e7 00              ??         00h
     0::000006e8 00              ??         00h
     0::000006e9 00              ??         00h
     0::000006ea 00              ??         00h
     0::000006eb 00              ??         00h
     0::000006ec 00              ??         00h
     0::000006ed 00              ??         00h
     0::000006ee 00              ??         00h
     0::000006ef 00              ??         00h
     0::000006f0 00              ??         00h                                              ?  ->  unallocated_0::00000100
     0::000006f1 01              ??         01h                                              ?  ->  unallocated_0::00000001
     0::000006f2 00              ??         00h
     0::000006f3 00              ??         00h
     0::000006f4 00              ??         00h
     0::000006f5 00              ??         00h
     0::000006f6 00              ??         00h
     0::000006f7 00              ??         00h
     0::000006f8 00              ??         00h                                              ?  ->  unallocated_0::00000100
     0::000006f9 01              ??         01h                                              ?  ->  unallocated_0::00000001
     0::000006fa 00              ??         00h
     0::000006fb 00              ??         00h
     0::000006fc 00              ??         00h
     0::000006fd 00              ??         00h
     0::000006fe 00              ??         00h
     0::000006ff 00              ??         00h
     0::00000700 00              ??         00h
     0::00000701 01              ??         01h
     0::00000702 00              ??         00h
     0::00000703 00              ??         00h
     0::00000704 00              ??         00h                                              ?  ->  unallocated_0::00000200
     0::00000705 02              ??         02h                                              ?  ->  unallocated_0::00000002
     0::00000706 00              ??         00h
     0::00000707 00              ??         00h
     0::00000708 00              ??         00h
     0::00000709 00              ??         00h
     0::0000070a 00              ??         00h
     0::0000070b 00              ??         00h
     0::0000070c 00              ??         00h
     0::0000070d 00              ??         00h
     0::0000070e 00              ??         00h
     0::0000070f 00              ??         00h
     0::00000710 00              ??         00h
     0::00000711 00              ??         00h
     0::00000712 00              ??         00h
     0::00000713 00              ??         00h
     0::00000714 00              ??         00h
     0::00000715 00              ??         00h
     0::00000716 00              ??         00h
     0::00000717 00              ??         00h
     0::00000718 00              ??         00h
     0::00000719 40              ??         40h    @
     0::0000071a 30              ??         30h    0
     0::0000071b 00              ??         00h
     0::0000071c 00              ??         00h
     0::0000071d 00              ??         00h
     0::0000071e 00              ??         00h
     0::0000071f 00              ??         00h
     0::00000720 00              ??         00h
     0::00000721 b0              ??         B0h                                              ?  ->  unallocated_0::000004b0
     0::00000722 04              ??         04h
     0::00000723 00              ??         00h
     0::00000724 00              ??         00h
     0::00000725 00              ??         00h
     0::00000726 00              ??         00h
     0::00000727 00              ??         00h
     0::00000728 00              ??         00h
     0::00000729 1d              ??         1Dh
     0::0000072a 00              ??         00h
     0::0000072b 00              ??         00h
     0::0000072c 00              ??         00h
     0::0000072d 12              ??         12h
     0::0000072e 00              ??         00h
     0::0000072f 00              ??         00h
     0::00000730 00              ??         00h                                              ?  ->  unallocated_0::00000800
     0::00000731 08              ??         08h                                              ?  ->  unallocated_0::00000008
     0::00000732 00              ??         00h
     0::00000733 00              ??         00h
     0::00000734 00              ??         00h
     0::00000735 00              ??         00h
     0::00000736 00              ??         00h
     0::00000737 00              ??         00h
     0::00000738 00              ??         00h
     0::00000739 18              ??         18h                                              ?  ->  unallocated_0::00000018
     0::0000073a 00              ??         00h
     0::0000073b 00              ??         00h
     0::0000073c 00              ??         00h
     0::0000073d 00              ??         00h
     0::0000073e 00              ??         00h
     0::0000073f 00              ??         00h
     0::00000740 00              ??         00h
     0::00000741 09              ??         09h
     0::00000742 00              ??         00h
     0::00000743 00              ??         00h
     0::00000744 00              ??         00h                                              ?  ->  unallocated_0::00000300
     0::00000745 03              ??         03h                                              ?  ->  unallocated_0::00000003
     0::00000746 00              ??         00h
     0::00000747 00              ??         00h
     0::00000748 00              ??         00h
     0::00000749 00              ??         00h
     0::0000074a 00              ??         00h
     0::0000074b 00              ??         00h
     0::0000074c 00              ??         00h
     0::0000074d 00              ??         00h
     0::0000074e 00              ??         00h
     0::0000074f 00              ??         00h
     0::00000750 00              ??         00h
     0::00000751 00              ??         00h
     0::00000752 00              ??         00h
     0::00000753 00              ??         00h
     0::00000754 00              ??         00h
     0::00000755 00              ??         00h
     0::00000756 00              ??         00h
     0::00000757 00              ??         00h
     0::00000758 00              ??         00h
     0::00000759 f0              ??         F0h
     0::0000075a 34              ??         34h    4
     0::0000075b 00              ??         00h
     0::0000075c 00              ??         00h
     0::0000075d 00              ??         00h
     0::0000075e 00              ??         00h
     0::0000075f 00              ??         00h
     0::00000760 00              ??         00h
     0::00000761 cd              ??         CDh                                              ?  ->  unallocated_0::000002cd
     0::00000762 02              ??         02h                                              ?  ->  unallocated_0::00000002
     0::00000763 00              ??         00h
     0::00000764 00              ??         00h
     0::00000765 00              ??         00h
     0::00000766 00              ??         00h
     0::00000767 00              ??         00h
     0::00000768 00              ??         00h
     0::00000769 00              ??         00h
     0::0000076a 00              ??         00h
     0::0000076b 00              ??         00h
     0::0000076c 00              ??         00h
     0::0000076d 00              ??         00h
     0::0000076e 00              ??         00h
     0::0000076f 00              ??         00h
     0::00000770 00              ??         00h                                              ?  ->  unallocated_0::00000100
     0::00000771 01              ??         01h                                              ?  ->  unallocated_0::00000001
     0::00000772 00              ??         00h
     0::00000773 00              ??         00h
     0::00000774 00              ??         00h
     0::00000775 00              ??         00h
     0::00000776 00              ??         00h
     0::00000777 00              ??         00h
     0::00000778 00              ??         00h
     0::00000779 00              ??         00h
     0::0000077a 00              ??         00h
     0::0000077b 00              ??         00h
     0::0000077c 00              ??         00h
     0::0000077d 00              ??         00h
     0::0000077e 00              ??         00h
     0::0000077f 00              ??         00h
     0::00000780 00              ??         00h
     0::00000781 11              ??         11h
     0::00000782 00              ??         00h
     0::00000783 00              ??         00h
     0::00000784 00              ??         00h                                              ?  ->  unallocated_0::00000300
     0::00000785 03              ??         03h                                              ?  ->  unallocated_0::00000003
     0::00000786 00              ??         00h
     0::00000787 00              ??         00h
     0::00000788 00              ??         00h
     0::00000789 00              ??         00h
     0::0000078a 00              ??         00h
     0::0000078b 00              ??         00h
     0::0000078c 00              ??         00h
     0::0000078d 00              ??         00h
     0::0000078e 00              ??         00h
     0::0000078f 00              ??         00h
     0::00000790 00              ??         00h
     0::00000791 00              ??         00h
     0::00000792 00              ??         00h
     0::00000793 00              ??         00h
     0::00000794 00              ??         00h
     0::00000795 00              ??         00h
     0::00000796 00              ??         00h
     0::00000797 00              ??         00h
     0::00000798 00              ??         00h
     0::00000799 bd              ??         BDh
     0::0000079a 37              ??         37h    7
     0::0000079b 00              ??         00h
     0::0000079c 00              ??         00h
     0::0000079d 00              ??         00h
     0::0000079e 00              ??         00h
     0::0000079f 00              ??         00h
     0::000007a0 00              ??         00h
     0::000007a1 1a              ??         1Ah                                              ?  ->  unallocated_0::0000011a
     0::000007a2 01              ??         01h                                              ?  ->  unallocated_0::00000001
     0::000007a3 00              ??         00h
     0::000007a4 00              ??         00h
     0::000007a5 00              ??         00h
     0::000007a6 00              ??         00h
     0::000007a7 00              ??         00h
     0::000007a8 00              ??         00h
     0::000007a9 00              ??         00h
     0::000007aa 00              ??         00h
     0::000007ab 00              ??         00h
     0::000007ac 00              ??         00h
     0::000007ad 00              ??         00h
     0::000007ae 00              ??         00h
     0::000007af 00              ??         00h
     0::000007b0 00              ??         00h                                              ?  ->  unallocated_0::00000100
     0::000007b1 01              ??         01h                                              ?  ->  unallocated_0::00000001
     0::000007b2 00              ??         00h
     0::000007b3 00              ??         00h
     0::000007b4 00              ??         00h
     0::000007b5 00              ??         00h
     0::000007b6 00              ??         00h
     0::000007b7 00              ??         00h
     0::000007b8 00              ??         00h
     0::000007b9 00              ??         00h
     0::000007ba 00              ??         00h
     0::000007bb 00              ??         00h
     0::000007bc 00              ??         00h
     0::000007bd 00              ??         00h
     0::000007be 00              ??         00h
     0::000007bf 00              ??         00h
     0::000007c0 00              ??         00h
     0::000007c1 00              ??         00h
     0::000007c2 00              ??         00h
     0::000007c3 00              ??         00h
     0::000007c4 00              ??         00h
     0::000007c5 00              ??         00h
     0::000007c6 00              ??         00h
     0::000007c7 00              ??         00h
     0::000007c8 00              ??         00h
     0::000007c9 00              ??         00h
     0::000007ca 00              ??         00h
     0::000007cb 00              ??         00h
     0::000007cc 00              ??         00h
     0::000007cd 00              ??         00h
     0::000007ce 00              ??         00h
     0::000007cf 00              ??         00h
     0::000007d0 00              ??         00h
     0::000007d1 00              ??         00h
     0::000007d2 00              ??         00h
     0::000007d3 00              ??         00h
     0::000007d4 00              ??         00h
     0::000007d5 00              ??         00h
     0::000007d6 00              ??         00h
     0::000007d7 00              ??         00h
     0::000007d8 00              ??         00h
     0::000007d9 00              ??         00h
     0::000007da 00              ??         00h
     0::000007db 00              ??         00h
     0::000007dc 00              ??         00h
     0::000007dd 00              ??         00h
     0::000007de 00              ??         00h
     0::000007df 00              ??         00h
     0::000007e0 00              ??         00h
     0::000007e1 00              ??         00h
     0::000007e2 00              ??         00h
     0::000007e3 00              ??         00h
     0::000007e4 00              ??         00h
     0::000007e5 00              ??         00h
     0::000007e6 00              ??         00h
     0::000007e7 00              ??         00h
     0::000007e8 00              ??         00h
     0::000007e9 00              ??         00h
     0::000007ea 00              ??         00h
     0::000007eb 00              ??         00h
     0::000007ec 00              ??         00h
     0::000007ed 00              ??         00h
     0::000007ee 00              ??         00h
     0::000007ef 00              ??         00h
     0::000007f0 00              ??         00h
     0::000007f1 00              ??         00h
     0::000007f2 00              ??         00h
     0::000007f3 00              ??         00h
     0::000007f4 00              ??         00h
     0::000007f5 00              ??         00h
     0::000007f6 00              ??         00h
     0::000007f7 00              ??         00h
     0::000007f8 00              ??         00h
     0::000007f9 00              ??         00h
     0::000007fa 00              ??         00h
     0::000007fb 00              ??         00h
     0::000007fc 00              ??         00h
     0::000007fd 00              ??         00h
     0::000007fe 00              ??         00h
     0::000007ff 00              ??         00h
     0::00000800 00              ??         00h
     0::00000801 00              ??         00h
     0::00000802 00              ??         00h
     0::00000803 00              ??         00h
     0::00000804 00              ??         00h
     0::00000805 00              ??         00h
     0::00000806 00              ??         00h
     0::00000807 00              ??         00h
     0::00000808 00              ??         00h
     0::00000809 00              ??         00h
     0::0000080a 00              ??         00h
     0::0000080b 00              ??         00h
     0::0000080c 00              ??         00h
     0::0000080d 00              ??         00h
     0::0000080e 00              ??         00h
     0::0000080f 00              ??         00h
     0::00000810 00              ??         00h
     0::00000811 00              ??         00h
     0::00000812 00              ??         00h
     0::00000813 00              ??         00h
     0::00000814 00              ??         00h
     0::00000815 00              ??         00h
     0::00000816 00              ??         00h
     0::00000817 00              ??         00h
     0::00000818 00              ??         00h
     0::00000819 00              ??         00h
     0::0000081a 00              ??         00h
     0::0000081b 00              ??         00h
     0::0000081c 00              ??         00h
     0::0000081d 00              ??         00h
     0::0000081e 00              ??         00h
     0::0000081f 00              ??         00h
     0::00000820 00              ??         00h
     0::00000821 00              ??         00h
     0::00000822 00              ??         00h
     0::00000823 00              ??         00h
     0::00000824 00              ??         00h
     0::00000825 00              ??         00h
     0::00000826 00              ??         00h
     0::00000827 00              ??         00h
     0::00000828 00              ??         00h
     0::00000829 00              ??         00h
     0::0000082a 00              ??         00h
     0::0000082b 00              ??         00h
     0::0000082c 00              ??         00h
     0::0000082d 00              ??         00h
     0::0000082e 00              ??         00h
     0::0000082f 00              ??         00h
     0::00000830 00              ??         00h
     0::00000831 00              ??         00h
     0::00000832 00              ??         00h
     0::00000833 00              ??         00h
     0::00000834 00              ??         00h
     0::00000835 00              ??         00h
     0::00000836 00              ??         00h
     0::00000837 00              ??         00h
     0::00000838 00              ??         00h
     0::00000839 00              ??         00h
     0::0000083a 00              ??         00h
     0::0000083b 00              ??         00h
     0::0000083c 00              ??         00h
     0::0000083d 00              ??         00h
     0::0000083e 00              ??         00h
     0::0000083f 00              ??         00h
     0::00000840 00              ??         00h
     0::00000841 00              ??         00h
     0::00000842 00              ??         00h
     0::00000843 00              ??         00h
     0::00000844 00              ??         00h
     0::00000845 00              ??         00h
     0::00000846 00              ??         00h
     0::00000847 00              ??         00h
     0::00000848 00              ??         00h
     0::00000849 00              ??         00h
     0::0000084a 00              ??         00h
     0::0000084b 00              ??         00h
     0::0000084c 00              ??         00h
     0::0000084d 00              ??         00h
     0::0000084e 00              ??         00h
     0::0000084f 00              ??         00h
     0::00000850 00              ??         00h
     0::00000851 00              ??         00h
     0::00000852 00              ??         00h
     0::00000853 00              ??         00h
     0::00000854 00              ??         00h
     0::00000855 00              ??         00h
     0::00000856 00              ??         00h
     0::00000857 00              ??         00h
     0::00000858 00              ??         00h
     0::00000859 00              ??         00h
     0::0000085a 00              ??         00h
     0::0000085b 00              ??         00h
     0::0000085c 00              ??         00h
     0::0000085d 00              ??         00h
     0::0000085e 00              ??         00h
     0::0000085f 00              ??         00h
     0::00000860 00              ??         00h
     0::00000861 00              ??         00h
     0::00000862 00              ??         00h
     0::00000863 00              ??         00h
     0::00000864 00              ??         00h
     0::00000865 00              ??         00h
     0::00000866 00              ??         00h
     0::00000867 00              ??         00h
     0::00000868 00              ??         00h
     0::00000869 00              ??         00h
     0::0000086a 00              ??         00h
     0::0000086b 00              ??         00h
     0::0000086c 00              ??         00h
     0::0000086d 00              ??         00h
     0::0000086e 00              ??         00h
     0::0000086f 00              ??         00h
     0::00000870 00              ??         00h
     0::00000871 00              ??         00h
     0::00000872 00              ??         00h
     0::00000873 00              ??         00h
     0::00000874 00              ??         00h
     0::00000875 00              ??         00h
     0::00000876 00              ??         00h
     0::00000877 00              ??         00h
     0::00000878 00              ??         00h
     0::00000879 00              ??         00h
     0::0000087a 00              ??         00h
     0::0000087b 00              ??         00h
     0::0000087c 00              ??         00h
     0::0000087d 00              ??         00h
     0::0000087e 00              ??         00h
     0::0000087f 00              ??         00h
     0::00000880 00              ??         00h
     0::00000881 00              ??         00h
     0::00000882 00              ??         00h
     0::00000883 00              ??         00h
     0::00000884 00              ??         00h
     0::00000885 00              ??         00h
     0::00000886 00              ??         00h
     0::00000887 00              ??         00h
     0::00000888 00              ??         00h
     0::00000889 00              ??         00h
     0::0000088a 00              ??         00h
     0::0000088b 00              ??         00h
     0::0000088c 00              ??         00h
     0::0000088d 00              ??         00h
     0::0000088e 00              ??         00h
     0::0000088f 00              ??         00h
     0::00000890 00              ??         00h
     0::00000891 00              ??         00h
     0::00000892 00              ??         00h
     0::00000893 00              ??         00h
     0::00000894 00              ??         00h
     0::00000895 00              ??         00h
     0::00000896 00              ??         00h
     0::00000897 00              ??         00h
     0::00000898 00              ??         00h
     0::00000899 00              ??         00h
     0::0000089a 00              ??         00h
     0::0000089b 00              ??         00h
     0::0000089c 00              ??         00h
     0::0000089d 00              ??         00h
     0::0000089e 00              ??         00h
     0::0000089f 00              ??         00h
     0::000008a0 00              ??         00h
     0::000008a1 00              ??         00h
     0::000008a2 00              ??         00h
     0::000008a3 00              ??         00h
     0::000008a4 00              ??         00h
     0::000008a5 00              ??         00h
     0::000008a6 00              ??         00h
     0::000008a7 00              ??         00h
     0::000008a8 00              ??         00h
     0::000008a9 00              ??         00h
     0::000008aa 00              ??         00h
     0::000008ab 00              ??         00h
     0::000008ac 00              ??         00h
     0::000008ad 00              ??         00h
     0::000008ae 00              ??         00h
     0::000008af 00              ??         00h
     0::000008b0 00              ??         00h
     0::000008b1 00              ??         00h
     0::000008b2 00              ??         00h
     0::000008b3 00              ??         00h
     0::000008b4 00              ??         00h
     0::000008b5 00              ??         00h
     0::000008b6 00              ??         00h
     0::000008b7 00              ??         00h
     0::000008b8 00              ??         00h
     0::000008b9 00              ??         00h
     0::000008ba 00              ??         00h
     0::000008bb 00              ??         00h
     0::000008bc 00              ??         00h
     0::000008bd 00              ??         00h
     0::000008be 00              ??         00h
     0::000008bf 00              ??         00h
     0::000008c0 00              ??         00h
     0::000008c1 00              ??         00h
     0::000008c2 00              ??         00h
     0::000008c3 00              ??         00h
     0::000008c4 00              ??         00h
     0::000008c5 00              ??         00h
     0::000008c6 00              ??         00h
     0::000008c7 00              ??         00h
     0::000008c8 00              ??         00h
     0::000008c9 00              ??         00h
     0::000008ca 00              ??         00h
     0::000008cb 00              ??         00h
     0::000008cc 00              ??         00h
     0::000008cd 00              ??         00h
     0::000008ce 00              ??         00h
     0::000008cf 00              ??         00h
     0::000008d0 00              ??         00h
     0::000008d1 00              ??         00h
     0::000008d2 00              ??         00h
     0::000008d3 00              ??         00h
     0::000008d4 00              ??         00h
     0::000008d5 00              ??         00h
     0::000008d6 00              ??         00h
     0::000008d7 00              ??         00h
     0::000008d8 00              ??         00h
     0::000008d9 00              ??         00h
     0::000008da 00              ??         00h
     0::000008db 00              ??         00h
     0::000008dc 00              ??         00h
     0::000008dd 00              ??         00h
     0::000008de 00              ??         00h
     0::000008df 00              ??         00h
     0::000008e0 00              ??         00h
     0::000008e1 00              ??         00h
     0::000008e2 00              ??         00h
     0::000008e3 00              ??         00h
     0::000008e4 00              ??         00h
     0::000008e5 00              ??         00h
     0::000008e6 00              ??         00h
     0::000008e7 00              ??         00h
     0::000008e8 00              ??         00h
     0::000008e9 00              ??         00h
     0::000008ea 00              ??         00h
     0::000008eb 00              ??         00h
     0::000008ec 00              ??         00h
     0::000008ed 00              ??         00h
     0::000008ee 00              ??         00h
     0::000008ef 00              ??         00h
     0::000008f0 00              ??         00h
     0::000008f1 00              ??         00h
     0::000008f2 00              ??         00h
     0::000008f3 00              ??         00h
     0::000008f4 00              ??         00h
     0::000008f5 00              ??         00h
     0::000008f6 00              ??         00h
     0::000008f7 00              ??         00h
     0::000008f8 00              ??         00h
     0::000008f9 00              ??         00h
     0::000008fa 00              ??         00h
     0::000008fb 00              ??         00h
     0::000008fc 00              ??         00h
     0::000008fd 00              ??         00h
     0::000008fe 00              ??         00h
     0::000008ff 00              ??         00h
     0::00000900 00              ??         00h
     0::00000901 00              ??         00h
     0::00000902 00              ??         00h
     0::00000903 00              ??         00h
     0::00000904 00              ??         00h
     0::00000905 00              ??         00h
     0::00000906 00              ??         00h
     0::00000907 00              ??         00h
     0::00000908 00              ??         00h
     0::00000909 00              ??         00h
     0::0000090a 00              ??         00h
     0::0000090b 00              ??         00h
     0::0000090c 00              ??         00h
     0::0000090d 00              ??         00h
     0::0000090e 00              ??         00h
     0::0000090f 00              ??         00h
     0::00000910 00              ??         00h
     0::00000911 00              ??         00h
     0::00000912 00              ??         00h
     0::00000913 00              ??         00h
     0::00000914 00              ??         00h
     0::00000915 00              ??         00h
     0::00000916 00              ??         00h
     0::00000917 00              ??         00h
     0::00000918 00              ??         00h
     0::00000919 00              ??         00h
     0::0000091a 00              ??         00h
     0::0000091b 00              ??         00h
     0::0000091c 00              ??         00h
     0::0000091d 00              ??         00h
     0::0000091e 00              ??         00h
     0::0000091f 00              ??         00h
     0::00000920 00              ??         00h
     0::00000921 00              ??         00h
     0::00000922 00              ??         00h
     0::00000923 00              ??         00h
     0::00000924 00              ??         00h
     0::00000925 00              ??         00h
     0::00000926 00              ??         00h
     0::00000927 00              ??         00h
     0::00000928 00              ??         00h
     0::00000929 00              ??         00h
     0::0000092a 00              ??         00h
     0::0000092b 00              ??         00h
     0::0000092c 00              ??         00h
     0::0000092d 00              ??         00h
     0::0000092e 00              ??         00h
     0::0000092f 00              ??         00h
     0::00000930 00              ??         00h
     0::00000931 00              ??         00h
     0::00000932 00              ??         00h
     0::00000933 00              ??         00h
     0::00000934 00              ??         00h
     0::00000935 00              ??         00h
     0::00000936 00              ??         00h
     0::00000937 00              ??         00h
     0::00000938 00              ??         00h
     0::00000939 00              ??         00h
     0::0000093a 00              ??         00h
     0::0000093b 00              ??         00h
     0::0000093c 00              ??         00h
     0::0000093d 00              ??         00h
     0::0000093e 00              ??         00h
     0::0000093f 00              ??         00h
     0::00000940 00              ??         00h
     0::00000941 00              ??         00h
     0::00000942 00              ??         00h
     0::00000943 00              ??         00h
     0::00000944 00              ??         00h
     0::00000945 00              ??         00h
     0::00000946 00              ??         00h
     0::00000947 00              ??         00h
     0::00000948 00              ??         00h
     0::00000949 00              ??         00h
     0::0000094a 00              ??         00h
     0::0000094b 00              ??         00h
     0::0000094c 00              ??         00h
     0::0000094d 00              ??         00h
     0::0000094e 00              ??         00h
     0::0000094f 00              ??         00h
     0::00000950 00              ??         00h
     0::00000951 00              ??         00h
     0::00000952 00              ??         00h
     0::00000953 00              ??         00h
     0::00000954 00              ??         00h
     0::00000955 00              ??         00h
     0::00000956 00              ??         00h
     0::00000957 00              ??         00h
     0::00000958 00              ??         00h
     0::00000959 00              ??         00h
     0::0000095a 00              ??         00h
     0::0000095b 00              ??         00h
     0::0000095c 00              ??         00h
     0::0000095d 00              ??         00h
     0::0000095e 00              ??         00h
     0::0000095f 00              ??         00h
     0::00000960 00              ??         00h
     0::00000961 00              ??         00h
     0::00000962 00              ??         00h
     0::00000963 00              ??         00h
     0::00000964 00              ??         00h
     0::00000965 00              ??         00h
     0::00000966 00              ??         00h
     0::00000967 00              ??         00h
     0::00000968 00              ??         00h
     0::00000969 00              ??         00h
     0::0000096a 00              ??         00h
     0::0000096b 00              ??         00h
     0::0000096c 00              ??         00h
     0::0000096d 00              ??         00h
     0::0000096e 00              ??         00h
     0::0000096f 00              ??         00h
     0::00000970 00              ??         00h
     0::00000971 00              ??         00h
     0::00000972 00              ??         00h
     0::00000973 00              ??         00h
     0::00000974 00              ??         00h
     0::00000975 00              ??         00h
     0::00000976 00              ??         00h
     0::00000977 00              ??         00h
     0::00000978 00              ??         00h
     0::00000979 00              ??         00h
     0::0000097a 00              ??         00h
     0::0000097b 00              ??         00h
     0::0000097c 00              ??         00h
     0::0000097d 00              ??         00h
     0::0000097e 00              ??         00h
     0::0000097f 00              ??         00h
     0::00000980 00              ??         00h
     0::00000981 00              ??         00h
     0::00000982 00              ??         00h
     0::00000983 00              ??         00h
     0::00000984 00              ??         00h
     0::00000985 00              ??         00h
     0::00000986 00              ??         00h
     0::00000987 00              ??         00h
     0::00000988 00              ??         00h
     0::00000989 00              ??         00h
     0::0000098a 00              ??         00h
     0::0000098b 00              ??         00h
     0::0000098c 00              ??         00h
     0::0000098d 00              ??         00h
     0::0000098e 00              ??         00h
     0::0000098f 00              ??         00h
     0::00000990 00              ??         00h
     0::00000991 00              ??         00h
     0::00000992 00              ??         00h
     0::00000993 00              ??         00h
     0::00000994 00              ??         00h
     0::00000995 00              ??         00h
     0::00000996 00              ??         00h
     0::00000997 00              ??         00h
     0::00000998 00              ??         00h
     0::00000999 00              ??         00h
     0::0000099a 00              ??         00h
     0::0000099b 00              ??         00h
     0::0000099c 00              ??         00h
     0::0000099d 00              ??         00h
     0::0000099e 00              ??         00h
     0::0000099f 00              ??         00h
     0::000009a0 00              ??         00h
     0::000009a1 00              ??         00h
     0::000009a2 00              ??         00h
     0::000009a3 00              ??         00h
     0::000009a4 00              ??         00h
     0::000009a5 00              ??         00h
     0::000009a6 00              ??         00h
     0::000009a7 00              ??         00h
     0::000009a8 00              ??         00h
     0::000009a9 00              ??         00h
     0::000009aa 00              ??         00h
     0::000009ab 00              ??         00h
     0::000009ac 00              ??         00h
     0::000009ad 00              ??         00h
     0::000009ae 00              ??         00h
     0::000009af 00              ??         00h
     0::000009b0 00              ??         00h
     0::000009b1 00              ??         00h
     0::000009b2 00              ??         00h
     0::000009b3 00              ??         00h
     0::000009b4 00              ??         00h
     0::000009b5 00              ??         00h
     0::000009b6 00              ??         00h
     0::000009b7 00              ??         00h
     0::000009b8 00              ??         00h
     0::000009b9 00              ??         00h
     0::000009ba 00              ??         00h
     0::000009bb 00              ??         00h
     0::000009bc 00              ??         00h
     0::000009bd 00              ??         00h
     0::000009be 00              ??         00h
     0::000009bf 00              ??         00h
     0::000009c0 00              ??         00h
     0::000009c1 00              ??         00h
     0::000009c2 00              ??         00h
     0::000009c3 00              ??         00h
     0::000009c4 00              ??         00h
     0::000009c5 00              ??         00h
     0::000009c6 00              ??         00h
     0::000009c7 00              ??         00h
     0::000009c8 00              ??         00h
     0::000009c9 00              ??         00h
     0::000009ca 00              ??         00h
     0::000009cb 00              ??         00h
     0::000009cc 00              ??         00h
     0::000009cd 00              ??         00h
     0::000009ce 00              ??         00h
     0::000009cf 00              ??         00h
     0::000009d0 00              ??         00h
     0::000009d1 00              ??         00h
     0::000009d2 00              ??         00h
     0::000009d3 00              ??         00h
     0::000009d4 00              ??         00h
     0::000009d5 00              ??         00h
     0::000009d6 00              ??         00h
     0::000009d7 00              ??         00h
     0::000009d8 00              ??         00h
     0::000009d9 00              ??         00h
     0::000009da 00              ??         00h
     0::000009db 00              ??         00h
     0::000009dc 00              ??         00h
     0::000009dd 00              ??         00h
     0::000009de 00              ??         00h
     0::000009df 00              ??         00h
     0::000009e0 00              ??         00h
     0::000009e1 00              ??         00h
     0::000009e2 00              ??         00h
     0::000009e3 00              ??         00h
     0::000009e4 00              ??         00h
     0::000009e5 00              ??         00h
     0::000009e6 00              ??         00h
     0::000009e7 00              ??         00h
     0::000009e8 00              ??         00h
     0::000009e9 00              ??         00h
     0::000009ea 00              ??         00h
     0::000009eb 00              ??         00h
     0::000009ec 00              ??         00h
     0::000009ed 00              ??         00h
     0::000009ee 00              ??         00h
     0::000009ef 00              ??         00h
     0::000009f0 00              ??         00h
     0::000009f1 00              ??         00h
     0::000009f2 00              ??         00h
     0::000009f3 00              ??         00h
     0::000009f4 00              ??         00h
     0::000009f5 00              ??         00h
     0::000009f6 00              ??         00h
     0::000009f7 00              ??         00h
     0::000009f8 00              ??         00h
     0::000009f9 00              ??         00h
     0::000009fa 00              ??         00h
     0::000009fb 00              ??         00h
     0::000009fc 00              ??         00h
     0::000009fd 00              ??         00h
     0::000009fe 00              ??         00h
     0::000009ff 00              ??         00h
     0::00000a00 00              ??         00h
     0::00000a01 00              ??         00h
     0::00000a02 00              ??         00h
     0::00000a03 00              ??         00h
     0::00000a04 00              ??         00h
     0::00000a05 00              ??         00h
     0::00000a06 00              ??         00h
     0::00000a07 00              ??         00h
     0::00000a08 00              ??         00h
     0::00000a09 00              ??         00h
     0::00000a0a 00              ??         00h
     0::00000a0b 00              ??         00h
     0::00000a0c 00              ??         00h
     0::00000a0d 00              ??         00h
     0::00000a0e 00              ??         00h
     0::00000a0f 00              ??         00h
     0::00000a10 00              ??         00h
     0::00000a11 00              ??         00h
     0::00000a12 00              ??         00h
     0::00000a13 00              ??         00h
     0::00000a14 00              ??         00h
     0::00000a15 00              ??         00h
     0::00000a16 00              ??         00h
     0::00000a17 00              ??         00h
     0::00000a18 00              ??         00h
     0::00000a19 00              ??         00h
     0::00000a1a 00              ??         00h
     0::00000a1b 00              ??         00h
     0::00000a1c 00              ??         00h
     0::00000a1d 00              ??         00h
     0::00000a1e 00              ??         00h
     0::00000a1f 00              ??         00h
     0::00000a20 00              ??         00h
     0::00000a21 00              ??         00h
     0::00000a22 00              ??         00h
     0::00000a23 00              ??         00h
     0::00000a24 00              ??         00h
     0::00000a25 00              ??         00h
     0::00000a26 00              ??         00h
     0::00000a27 00              ??         00h
     0::00000a28 00              ??         00h
     0::00000a29 00              ??         00h
     0::00000a2a 00              ??         00h
     0::00000a2b 00              ??         00h
     0::00000a2c 00              ??         00h
     0::00000a2d 00              ??         00h
     0::00000a2e 00              ??         00h
     0::00000a2f 00              ??         00h
     0::00000a30 00              ??         00h
     0::00000a31 00              ??         00h
     0::00000a32 00              ??         00h
     0::00000a33 00              ??         00h
     0::00000a34 00              ??         00h
     0::00000a35 00              ??         00h
     0::00000a36 00              ??         00h
     0::00000a37 00              ??         00h
     0::00000a38 00              ??         00h
     0::00000a39 00              ??         00h
     0::00000a3a 00              ??         00h
     0::00000a3b 00              ??         00h
     0::00000a3c 00              ??         00h
     0::00000a3d 00              ??         00h
     0::00000a3e 00              ??         00h
     0::00000a3f 00              ??         00h
     0::00000a40 00              ??         00h
     0::00000a41 00              ??         00h
     0::00000a42 00              ??         00h
     0::00000a43 00              ??         00h
     0::00000a44 00              ??         00h
     0::00000a45 00              ??         00h
     0::00000a46 00              ??         00h
     0::00000a47 00              ??         00h
     0::00000a48 00              ??         00h
     0::00000a49 00              ??         00h
     0::00000a4a 00              ??         00h
     0::00000a4b 00              ??         00h
     0::00000a4c 00              ??         00h
     0::00000a4d 00              ??         00h
     0::00000a4e 00              ??         00h
     0::00000a4f 00              ??         00h
     0::00000a50 00              ??         00h
     0::00000a51 00              ??         00h
     0::00000a52 00              ??         00h
     0::00000a53 00              ??         00h
     0::00000a54 00              ??         00h
     0::00000a55 00              ??         00h
     0::00000a56 00              ??         00h
     0::00000a57 00              ??         00h
     0::00000a58 00              ??         00h
     0::00000a59 00              ??         00h
     0::00000a5a 00              ??         00h
     0::00000a5b 00              ??         00h
     0::00000a5c 00              ??         00h
     0::00000a5d 00              ??         00h
     0::00000a5e 00              ??         00h
     0::00000a5f 00              ??         00h
     0::00000a60 00              ??         00h
     0::00000a61 00              ??         00h
     0::00000a62 00              ??         00h
     0::00000a63 00              ??         00h
     0::00000a64 00              ??         00h
     0::00000a65 00              ??         00h
     0::00000a66 00              ??         00h
     0::00000a67 00              ??         00h
     0::00000a68 00              ??         00h
     0::00000a69 00              ??         00h
     0::00000a6a 00              ??         00h
     0::00000a6b 00              ??         00h
     0::00000a6c 00              ??         00h
     0::00000a6d 00              ??         00h
     0::00000a6e 00              ??         00h
     0::00000a6f 00              ??         00h
     0::00000a70 00              ??         00h
     0::00000a71 00              ??         00h
     0::00000a72 00              ??         00h
     0::00000a73 00              ??         00h
     0::00000a74 00              ??         00h
     0::00000a75 00              ??         00h
     0::00000a76 00              ??         00h
     0::00000a77 00              ??         00h
     0::00000a78 00              ??         00h
     0::00000a79 00              ??         00h
     0::00000a7a 00              ??         00h
     0::00000a7b 00              ??         00h
     0::00000a7c 00              ??         00h
     0::00000a7d 00              ??         00h
     0::00000a7e 00              ??         00h
     0::00000a7f 00              ??         00h
     0::00000a80 00              ??         00h
     0::00000a81 00              ??         00h
     0::00000a82 00              ??         00h
     0::00000a83 00              ??         00h
     0::00000a84 00              ??         00h
     0::00000a85 00              ??         00h
     0::00000a86 00              ??         00h
     0::00000a87 00              ??         00h
     0::00000a88 00              ??         00h
     0::00000a89 00              ??         00h
     0::00000a8a 00              ??         00h
     0::00000a8b 00              ??         00h
     0::00000a8c 00              ??         00h
     0::00000a8d 00              ??         00h
     0::00000a8e 00              ??         00h
     0::00000a8f 00              ??         00h
     0::00000a90 00              ??         00h
     0::00000a91 00              ??         00h
     0::00000a92 00              ??         00h
     0::00000a93 00              ??         00h
     0::00000a94 00              ??         00h
     0::00000a95 00              ??         00h
     0::00000a96 00              ??         00h
     0::00000a97 00              ??         00h
     0::00000a98 00              ??         00h
     0::00000a99 00              ??         00h
     0::00000a9a 00              ??         00h
     0::00000a9b 00              ??         00h
     0::00000a9c 00              ??         00h
     0::00000a9d 00              ??         00h
     0::00000a9e 00              ??         00h
     0::00000a9f 00              ??         00h
     0::00000aa0 00              ??         00h
     0::00000aa1 00              ??         00h
     0::00000aa2 00              ??         00h
     0::00000aa3 00              ??         00h
     0::00000aa4 00              ??         00h
     0::00000aa5 00              ??         00h
     0::00000aa6 00              ??         00h
     0::00000aa7 00              ??         00h
     0::00000aa8 00              ??         00h
     0::00000aa9 00              ??         00h
     0::00000aaa 00              ??         00h
     0::00000aab 00              ??         00h
     0::00000aac 00              ??         00h
     0::00000aad 00              ??         00h
     0::00000aae 00              ??         00h
     0::00000aaf 00              ??         00h
     0::00000ab0 00              ??         00h
     0::00000ab1 00              ??         00h
     0::00000ab2 00              ??         00h
     0::00000ab3 00              ??         00h
     0::00000ab4 00              ??         00h
     0::00000ab5 00              ??         00h
     0::00000ab6 00              ??         00h
     0::00000ab7 00              ??         00h
     0::00000ab8 00              ??         00h
     0::00000ab9 00              ??         00h
     0::00000aba 00              ??         00h
     0::00000abb 00              ??         00h
     0::00000abc 00              ??         00h
     0::00000abd 00              ??         00h
     0::00000abe 00              ??         00h
     0::00000abf 00              ??         00h
     0::00000ac0 00              ??         00h
     0::00000ac1 00              ??         00h
     0::00000ac2 00              ??         00h
     0::00000ac3 00              ??         00h
     0::00000ac4 00              ??         00h
     0::00000ac5 00              ??         00h
     0::00000ac6 00              ??         00h
     0::00000ac7 00              ??         00h
     0::00000ac8 00              ??         00h
     0::00000ac9 00              ??         00h
     0::00000aca 00              ??         00h
     0::00000acb 00              ??         00h
     0::00000acc 00              ??         00h
     0::00000acd 00              ??         00h
     0::00000ace 00              ??         00h
     0::00000acf 00              ??         00h
     0::00000ad0 00              ??         00h
     0::00000ad1 00              ??         00h
     0::00000ad2 00              ??         00h
     0::00000ad3 00              ??         00h
     0::00000ad4 00              ??         00h
     0::00000ad5 00              ??         00h
     0::00000ad6 00              ??         00h
     0::00000ad7 00              ??         00h
     0::00000ad8 00              ??         00h
     0::00000ad9 00              ??         00h
     0::00000ada 00              ??         00h
     0::00000adb 00              ??         00h
     0::00000adc 00              ??         00h
     0::00000add 00              ??         00h
     0::00000ade 00              ??         00h
     0::00000adf 00              ??         00h
     0::00000ae0 00              ??         00h
     0::00000ae1 00              ??         00h
     0::00000ae2 00              ??         00h
     0::00000ae3 00              ??         00h
     0::00000ae4 00              ??         00h
     0::00000ae5 00              ??         00h
     0::00000ae6 00              ??         00h
     0::00000ae7 00              ??         00h
     0::00000ae8 00              ??         00h
     0::00000ae9 00              ??         00h
     0::00000aea 00              ??         00h
     0::00000aeb 00              ??         00h
     0::00000aec 00              ??         00h
     0::00000aed 00              ??         00h
     0::00000aee 00              ??         00h
     0::00000aef 00              ??         00h
     0::00000af0 00              ??         00h
     0::00000af1 00              ??         00h
     0::00000af2 00              ??         00h
     0::00000af3 00              ??         00h
     0::00000af4 00              ??         00h
     0::00000af5 00              ??         00h
     0::00000af6 00              ??         00h
     0::00000af7 00              ??         00h
     0::00000af8 00              ??         00h
     0::00000af9 00              ??         00h
     0::00000afa 00              ??         00h
     0::00000afb 00              ??         00h
     0::00000afc 00              ??         00h
     0::00000afd 00              ??         00h
     0::00000afe 00              ??         00h
     0::00000aff 00              ??         00h
     0::00000b00 00              ??         00h
     0::00000b01 00              ??         00h
     0::00000b02 00              ??         00h
     0::00000b03 00              ??         00h
     0::00000b04 00              ??         00h
     0::00000b05 00              ??         00h
     0::00000b06 00              ??         00h
     0::00000b07 00              ??         00h
     0::00000b08 00              ??         00h
     0::00000b09 00              ??         00h
     0::00000b0a 00              ??         00h
     0::00000b0b 00              ??         00h
     0::00000b0c 00              ??         00h
     0::00000b0d 00              ??         00h
     0::00000b0e 00              ??         00h
     0::00000b0f 00              ??         00h
     0::00000b10 00              ??         00h
     0::00000b11 00              ??         00h
     0::00000b12 00              ??         00h
     0::00000b13 00              ??         00h
     0::00000b14 00              ??         00h
     0::00000b15 00              ??         00h
     0::00000b16 00              ??         00h
     0::00000b17 00              ??         00h
     0::00000b18 00              ??         00h
     0::00000b19 00              ??         00h
     0::00000b1a 00              ??         00h
     0::00000b1b 00              ??         00h
     0::00000b1c 00              ??         00h
     0::00000b1d 00              ??         00h
     0::00000b1e 00              ??         00h
     0::00000b1f 00              ??         00h
     0::00000b20 00              ??         00h
     0::00000b21 00              ??         00h
     0::00000b22 00              ??         00h
     0::00000b23 00              ??         00h
     0::00000b24 00              ??         00h
     0::00000b25 00              ??         00h
     0::00000b26 00              ??         00h
     0::00000b27 00              ??         00h
     0::00000b28 00              ??         00h
     0::00000b29 00              ??         00h
     0::00000b2a 00              ??         00h
     0::00000b2b 00              ??         00h
     0::00000b2c 00              ??         00h
     0::00000b2d 00              ??         00h
     0::00000b2e 00              ??         00h
     0::00000b2f 00              ??         00h
     0::00000b30 00              ??         00h
     0::00000b31 00              ??         00h
     0::00000b32 00              ??         00h
     0::00000b33 00              ??         00h
     0::00000b34 00              ??         00h
     0::00000b35 00              ??         00h
     0::00000b36 00              ??         00h
     0::00000b37 00              ??         00h
     0::00000b38 00              ??         00h
     0::00000b39 00              ??         00h
     0::00000b3a 00              ??         00h
     0::00000b3b 00              ??         00h
     0::00000b3c 00              ??         00h
     0::00000b3d 00              ??         00h
     0::00000b3e 00              ??         00h
     0::00000b3f 00              ??         00h
     0::00000b40 00              ??         00h
     0::00000b41 00              ??         00h
     0::00000b42 00              ??         00h
     0::00000b43 00              ??         00h
     0::00000b44 00              ??         00h
     0::00000b45 00              ??         00h
     0::00000b46 00              ??         00h
     0::00000b47 00              ??         00h
     0::00000b48 00              ??         00h
     0::00000b49 00              ??         00h
     0::00000b4a 00              ??         00h
     0::00000b4b 00              ??         00h
     0::00000b4c 00              ??         00h
     0::00000b4d 00              ??         00h
     0::00000b4e 00              ??         00h
     0::00000b4f 00              ??         00h
     0::00000b50 00              ??         00h
     0::00000b51 00              ??         00h
     0::00000b52 00              ??         00h
     0::00000b53 00              ??         00h
     0::00000b54 00              ??         00h
     0::00000b55 00              ??         00h
     0::00000b56 00              ??         00h
     0::00000b57 00              ??         00h
     0::00000b58 00              ??         00h
     0::00000b59 00              ??         00h
     0::00000b5a 00              ??         00h
     0::00000b5b 00              ??         00h
     0::00000b5c 00              ??         00h
     0::00000b5d 00              ??         00h
     0::00000b5e 00              ??         00h
     0::00000b5f 00              ??         00h
     0::00000b60 00              ??         00h
     0::00000b61 00              ??         00h
     0::00000b62 00              ??         00h
     0::00000b63 00              ??         00h
     0::00000b64 00              ??         00h
     0::00000b65 00              ??         00h
     0::00000b66 00              ??         00h
     0::00000b67 00              ??         00h
     0::00000b68 00              ??         00h
     0::00000b69 00              ??         00h
     0::00000b6a 00              ??         00h
     0::00000b6b 00              ??         00h
     0::00000b6c 00              ??         00h
     0::00000b6d 00              ??         00h
     0::00000b6e 00              ??         00h
     0::00000b6f 00              ??         00h
     0::00000b70 00              ??         00h
     0::00000b71 00              ??         00h
     0::00000b72 00              ??         00h
     0::00000b73 00              ??         00h
     0::00000b74 00              ??         00h
     0::00000b75 00              ??         00h
     0::00000b76 00              ??         00h
     0::00000b77 00              ??         00h
     0::00000b78 00              ??         00h
     0::00000b79 00              ??         00h
     0::00000b7a 00              ??         00h
     0::00000b7b 00              ??         00h
     0::00000b7c 00              ??         00h
     0::00000b7d 00              ??         00h
     0::00000b7e 00              ??         00h
     0::00000b7f 00              ??         00h
     0::00000b80 00              ??         00h
     0::00000b81 00              ??         00h
     0::00000b82 00              ??         00h
     0::00000b83 00              ??         00h
     0::00000b84 00              ??         00h
     0::00000b85 00              ??         00h
     0::00000b86 00              ??         00h
     0::00000b87 00              ??         00h
     0::00000b88 00              ??         00h
     0::00000b89 00              ??         00h
     0::00000b8a 00              ??         00h
     0::00000b8b 00              ??         00h
     0::00000b8c 00              ??         00h
     0::00000b8d 00              ??         00h
     0::00000b8e 00              ??         00h
     0::00000b8f 00              ??         00h
     0::00000b90 00              ??         00h
     0::00000b91 00              ??         00h
     0::00000b92 00              ??         00h
     0::00000b93 00              ??         00h
     0::00000b94 00              ??         00h
     0::00000b95 00              ??         00h
     0::00000b96 00              ??         00h
     0::00000b97 00              ??         00h
     0::00000b98 00              ??         00h
     0::00000b99 00              ??         00h
     0::00000b9a 00              ??         00h
     0::00000b9b 00              ??         00h
     0::00000b9c 00              ??         00h
     0::00000b9d 00              ??         00h
     0::00000b9e 00              ??         00h
     0::00000b9f 00              ??         00h
     0::00000ba0 00              ??         00h
     0::00000ba1 00              ??         00h
     0::00000ba2 00              ??         00h
     0::00000ba3 00              ??         00h
     0::00000ba4 00              ??         00h
     0::00000ba5 00              ??         00h
     0::00000ba6 00              ??         00h
     0::00000ba7 00              ??         00h
     0::00000ba8 00              ??         00h
     0::00000ba9 00              ??         00h
     0::00000baa 00              ??         00h
     0::00000bab 00              ??         00h
     0::00000bac 00              ??         00h
     0::00000bad 00              ??         00h
     0::00000bae 00              ??         00h
     0::00000baf 00              ??         00h
     0::00000bb0 00              ??         00h
     0::00000bb1 00              ??         00h
     0::00000bb2 00              ??         00h
     0::00000bb3 00              ??         00h
     0::00000bb4 00              ??         00h
     0::00000bb5 00              ??         00h
     0::00000bb6 00              ??         00h
     0::00000bb7 00              ??         00h
     0::00000bb8 00              ??         00h
     0::00000bb9 00              ??         00h
     0::00000bba 00              ??         00h
     0::00000bbb 00              ??         00h
     0::00000bbc 00              ??         00h
     0::00000bbd 00              ??         00h
     0::00000bbe 00              ??         00h
     0::00000bbf 00              ??         00h
     0::00000bc0 00              ??         00h
     0::00000bc1 00              ??         00h
     0::00000bc2 00              ??         00h
     0::00000bc3 00              ??         00h
     0::00000bc4 00              ??         00h
     0::00000bc5 00              ??         00h
     0::00000bc6 00              ??         00h
     0::00000bc7 00              ??         00h
     0::00000bc8 00              ??         00h
     0::00000bc9 00              ??         00h
     0::00000bca 00              ??         00h
     0::00000bcb 00              ??         00h
     0::00000bcc 00              ??         00h
     0::00000bcd 00              ??         00h
     0::00000bce 00              ??         00h
     0::00000bcf 00              ??         00h
     0::00000bd0 00              ??         00h
     0::00000bd1 00              ??         00h
     0::00000bd2 00              ??         00h
     0::00000bd3 00              ??         00h
     0::00000bd4 00              ??         00h
     0::00000bd5 00              ??         00h
     0::00000bd6 00              ??         00h
     0::00000bd7 00              ??         00h
     0::00000bd8 00              ??         00h
     0::00000bd9 00              ??         00h
     0::00000bda 00              ??         00h
     0::00000bdb 00              ??         00h
     0::00000bdc 00              ??         00h
     0::00000bdd 00              ??         00h
     0::00000bde 00              ??         00h
     0::00000bdf 00              ??         00h
     0::00000be0 00              ??         00h
     0::00000be1 00              ??         00h
     0::00000be2 00              ??         00h
     0::00000be3 00              ??         00h
     0::00000be4 00              ??         00h
     0::00000be5 00              ??         00h
     0::00000be6 00              ??         00h
     0::00000be7 00              ??         00h
     0::00000be8 00              ??         00h
     0::00000be9 00              ??         00h
     0::00000bea 00              ??         00h
     0::00000beb 00              ??         00h
     0::00000bec 00              ??         00h
     0::00000bed 00              ??         00h
     0::00000bee 00              ??         00h
     0::00000bef 00              ??         00h
     0::00000bf0 00              ??         00h
     0::00000bf1 00              ??         00h
     0::00000bf2 00              ??         00h
     0::00000bf3 00              ??         00h
     0::00000bf4 00              ??         00h
     0::00000bf5 00              ??         00h
     0::00000bf6 00              ??         00h
     0::00000bf7 00              ??         00h
     0::00000bf8 00              ??         00h
     0::00000bf9 00              ??         00h
     0::00000bfa 00              ??         00h
     0::00000bfb 00              ??         00h
     0::00000bfc 00              ??         00h
     0::00000bfd 00              ??         00h
     0::00000bfe 00              ??         00h
     0::00000bff 00              ??         00h
     0::00000c00 00              ??         00h
     0::00000c01 00              ??         00h
     0::00000c02 00              ??         00h
     0::00000c03 00              ??         00h
     0::00000c04 00              ??         00h
     0::00000c05 00              ??         00h
     0::00000c06 00              ??         00h
     0::00000c07 00              ??         00h
     0::00000c08 00              ??         00h
     0::00000c09 00              ??         00h
     0::00000c0a 00              ??         00h
     0::00000c0b 00              ??         00h
     0::00000c0c 00              ??         00h
     0::00000c0d 00              ??         00h
     0::00000c0e 00              ??         00h
     0::00000c0f 00              ??         00h
     0::00000c10 00              ??         00h
     0::00000c11 00              ??         00h
     0::00000c12 00              ??         00h
     0::00000c13 00              ??         00h
     0::00000c14 00              ??         00h
     0::00000c15 00              ??         00h
     0::00000c16 00              ??         00h
     0::00000c17 00              ??         00h
     0::00000c18 00              ??         00h
     0::00000c19 00              ??         00h
     0::00000c1a 00              ??         00h
     0::00000c1b 00              ??         00h
     0::00000c1c 00              ??         00h
     0::00000c1d 00              ??         00h
     0::00000c1e 00              ??         00h
     0::00000c1f 00              ??         00h
     0::00000c20 00              ??         00h
     0::00000c21 00              ??         00h
     0::00000c22 00              ??         00h
     0::00000c23 00              ??         00h
     0::00000c24 00              ??         00h
     0::00000c25 00              ??         00h
     0::00000c26 00              ??         00h
     0::00000c27 00              ??         00h
     0::00000c28 00              ??         00h
     0::00000c29 00              ??         00h
     0::00000c2a 00              ??         00h
     0::00000c2b 00              ??         00h
     0::00000c2c 00              ??         00h
     0::00000c2d 00              ??         00h
     0::00000c2e 00              ??         00h
     0::00000c2f 00              ??         00h
     0::00000c30 00              ??         00h
     0::00000c31 00              ??         00h
     0::00000c32 00              ??         00h
     0::00000c33 00              ??         00h
     0::00000c34 00              ??         00h
     0::00000c35 00              ??         00h
     0::00000c36 00              ??         00h
     0::00000c37 00              ??         00h
     0::00000c38 00              ??         00h
     0::00000c39 00              ??         00h
     0::00000c3a 00              ??         00h
     0::00000c3b 00              ??         00h
     0::00000c3c 00              ??         00h
     0::00000c3d 00              ??         00h
     0::00000c3e 00              ??         00h
     0::00000c3f 00              ??         00h
     0::00000c40 00              ??         00h
     0::00000c41 00              ??         00h
     0::00000c42 00              ??         00h
     0::00000c43 00              ??         00h
     0::00000c44 00              ??         00h
     0::00000c45 00              ??         00h
     0::00000c46 00              ??         00h
     0::00000c47 00              ??         00h
     0::00000c48 00              ??         00h
     0::00000c49 00              ??         00h
     0::00000c4a 00              ??         00h
     0::00000c4b 00              ??         00h
     0::00000c4c 00              ??         00h
     0::00000c4d 00              ??         00h
     0::00000c4e 00              ??         00h
     0::00000c4f 00              ??         00h
     0::00000c50 00              ??         00h
     0::00000c51 00              ??         00h
     0::00000c52 00              ??         00h
     0::00000c53 00              ??         00h
     0::00000c54 00              ??         00h
     0::00000c55 00              ??         00h
     0::00000c56 00              ??         00h
     0::00000c57 00              ??         00h
     0::00000c58 00              ??         00h
     0::00000c59 00              ??         00h
     0::00000c5a 00              ??         00h
     0::00000c5b 00              ??         00h
     0::00000c5c 00              ??         00h
     0::00000c5d 00              ??         00h
     0::00000c5e 00              ??         00h
     0::00000c5f 00              ??         00h
     0::00000c60 00              ??         00h
     0::00000c61 00              ??         00h
     0::00000c62 00              ??         00h
     0::00000c63 00              ??         00h
     0::00000c64 00              ??         00h
     0::00000c65 00              ??         00h
     0::00000c66 00              ??         00h
     0::00000c67 00              ??         00h
     0::00000c68 00              ??         00h
     0::00000c69 00              ??         00h
     0::00000c6a 00              ??         00h
     0::00000c6b 00              ??         00h
     0::00000c6c 00              ??         00h
     0::00000c6d 00              ??         00h
     0::00000c6e 00              ??         00h
     0::00000c6f 00              ??         00h
     0::00000c70 00              ??         00h
     0::00000c71 00              ??         00h
     0::00000c72 00              ??         00h
     0::00000c73 00              ??         00h
     0::00000c74 00              ??         00h
     0::00000c75 00              ??         00h
     0::00000c76 00              ??         00h
     0::00000c77 00              ??         00h
     0::00000c78 00              ??         00h
     0::00000c79 00              ??         00h
     0::00000c7a 00              ??         00h
     0::00000c7b 00              ??         00h
     0::00000c7c 00              ??         00h
     0::00000c7d 00              ??         00h
     0::00000c7e 00              ??         00h
     0::00000c7f 00              ??         00h
     0::00000c80 00              ??         00h
     0::00000c81 00              ??         00h
     0::00000c82 00              ??         00h
     0::00000c83 00              ??         00h
     0::00000c84 00              ??         00h
     0::00000c85 00              ??         00h
     0::00000c86 00              ??         00h
     0::00000c87 00              ??         00h
     0::00000c88 00              ??         00h
     0::00000c89 00              ??         00h
     0::00000c8a 00              ??         00h
     0::00000c8b 00              ??         00h
     0::00000c8c 00              ??         00h
     0::00000c8d 00              ??         00h
     0::00000c8e 00              ??         00h
     0::00000c8f 00              ??         00h
     0::00000c90 00              ??         00h
     0::00000c91 00              ??         00h
     0::00000c92 00              ??         00h
     0::00000c93 00              ??         00h
     0::00000c94 00              ??         00h
     0::00000c95 00              ??         00h
     0::00000c96 00              ??         00h
     0::00000c97 00              ??         00h
     0::00000c98 00              ??         00h
     0::00000c99 00              ??         00h
     0::00000c9a 00              ??         00h
     0::00000c9b 00              ??         00h
     0::00000c9c 00              ??         00h
     0::00000c9d 00              ??         00h
     0::00000c9e 00              ??         00h
     0::00000c9f 00              ??         00h
     0::00000ca0 00              ??         00h
     0::00000ca1 00              ??         00h
     0::00000ca2 00              ??         00h
     0::00000ca3 00              ??         00h
     0::00000ca4 00              ??         00h
     0::00000ca5 00              ??         00h
     0::00000ca6 00              ??         00h
     0::00000ca7 00              ??         00h
     0::00000ca8 00              ??         00h
     0::00000ca9 00              ??         00h
     0::00000caa 00              ??         00h
     0::00000cab 00              ??         00h
     0::00000cac 00              ??         00h
     0::00000cad 00              ??         00h
     0::00000cae 00              ??         00h
     0::00000caf 00              ??         00h
     0::00000cb0 00              ??         00h
     0::00000cb1 00              ??         00h
     0::00000cb2 00              ??         00h
     0::00000cb3 00              ??         00h
     0::00000cb4 00              ??         00h
     0::00000cb5 00              ??         00h
     0::00000cb6 00              ??         00h
     0::00000cb7 00              ??         00h
     0::00000cb8 00              ??         00h
     0::00000cb9 00              ??         00h
     0::00000cba 00              ??         00h
     0::00000cbb 00              ??         00h
     0::00000cbc 00              ??         00h
     0::00000cbd 00              ??         00h
     0::00000cbe 00              ??         00h
     0::00000cbf 00              ??         00h
     0::00000cc0 00              ??         00h
     0::00000cc1 00              ??         00h
     0::00000cc2 00              ??         00h
     0::00000cc3 00              ??         00h
     0::00000cc4 00              ??         00h
     0::00000cc5 00              ??         00h
     0::00000cc6 00              ??         00h
     0::00000cc7 00              ??         00h
     0::00000cc8 00              ??         00h
     0::00000cc9 00              ??         00h
     0::00000cca 00              ??         00h
     0::00000ccb 00              ??         00h
     0::00000ccc 00              ??         00h
     0::00000ccd 00              ??         00h
     0::00000cce 00              ??         00h
     0::00000ccf 00              ??         00h
     0::00000cd0 00              ??         00h
     0::00000cd1 00              ??         00h
     0::00000cd2 00              ??         00h
     0::00000cd3 00              ??         00h
     0::00000cd4 00              ??         00h
     0::00000cd5 00              ??         00h
     0::00000cd6 00              ??         00h
     0::00000cd7 00              ??         00h
     0::00000cd8 00              ??         00h
     0::00000cd9 00              ??         00h
     0::00000cda 00              ??         00h
     0::00000cdb 00              ??         00h
     0::00000cdc 00              ??         00h
     0::00000cdd 00              ??         00h
     0::00000cde 00              ??         00h
     0::00000cdf 00              ??         00h
     0::00000ce0 00              ??         00h
     0::00000ce1 00              ??         00h
     0::00000ce2 00              ??         00h
     0::00000ce3 00              ??         00h
     0::00000ce4 00              ??         00h
     0::00000ce5 00              ??         00h
     0::00000ce6 00              ??         00h
     0::00000ce7 00              ??         00h
     0::00000ce8 00              ??         00h
     0::00000ce9 00              ??         00h
     0::00000cea 00              ??         00h
     0::00000ceb 00              ??         00h
     0::00000cec 00              ??         00h
     0::00000ced 00              ??         00h
     0::00000cee 00              ??         00h
     0::00000cef 00              ??         00h
     0::00000cf0 00              ??         00h
     0::00000cf1 00              ??         00h
     0::00000cf2 00              ??         00h
     0::00000cf3 00              ??         00h
     0::00000cf4 00              ??         00h
     0::00000cf5 00              ??         00h
     0::00000cf6 00              ??         00h
     0::00000cf7 00              ??         00h
     0::00000cf8 00              ??         00h
     0::00000cf9 00              ??         00h
     0::00000cfa 00              ??         00h
     0::00000cfb 00              ??         00h
     0::00000cfc 00              ??         00h
     0::00000cfd 00              ??         00h
     0::00000cfe 00              ??         00h
     0::00000cff 00              ??         00h
     0::00000d00 00              ??         00h
     0::00000d01 00              ??         00h
     0::00000d02 00              ??         00h
     0::00000d03 00              ??         00h
     0::00000d04 00              ??         00h
     0::00000d05 00              ??         00h
     0::00000d06 00              ??         00h
     0::00000d07 00              ??         00h
     0::00000d08 00              ??         00h
     0::00000d09 00              ??         00h
     0::00000d0a 00              ??         00h
     0::00000d0b 00              ??         00h
     0::00000d0c 00              ??         00h
     0::00000d0d 00              ??         00h
     0::00000d0e 00              ??         00h
     0::00000d0f 00              ??         00h
     0::00000d10 00              ??         00h
     0::00000d11 00              ??         00h
     0::00000d12 00              ??         00h
     0::00000d13 00              ??         00h
     0::00000d14 00              ??         00h
     0::00000d15 00              ??         00h
     0::00000d16 00              ??         00h
     0::00000d17 00              ??         00h
     0::00000d18 00              ??         00h
     0::00000d19 00              ??         00h
     0::00000d1a 00              ??         00h
     0::00000d1b 00              ??         00h
     0::00000d1c 00              ??         00h
     0::00000d1d 00              ??         00h
     0::00000d1e 00              ??         00h
     0::00000d1f 00              ??         00h
     0::00000d20 00              ??         00h
     0::00000d21 00              ??         00h
     0::00000d22 00              ??         00h
     0::00000d23 00              ??         00h
     0::00000d24 00              ??         00h
     0::00000d25 00              ??         00h
     0::00000d26 00              ??         00h
     0::00000d27 00              ??         00h
     0::00000d28 00              ??         00h
     0::00000d29 00              ??         00h
     0::00000d2a 00              ??         00h
     0::00000d2b 00              ??         00h
     0::00000d2c 00              ??         00h
     0::00000d2d 00              ??         00h
     0::00000d2e 00              ??         00h
     0::00000d2f 00              ??         00h
     0::00000d30 00              ??         00h
     0::00000d31 00              ??         00h
     0::00000d32 00              ??         00h
     0::00000d33 00              ??         00h
     0::00000d34 00              ??         00h
     0::00000d35 00              ??         00h
     0::00000d36 00              ??         00h
     0::00000d37 00              ??         00h
     0::00000d38 00              ??         00h
     0::00000d39 00              ??         00h
     0::00000d3a 00              ??         00h
     0::00000d3b 00              ??         00h
     0::00000d3c 00              ??         00h
     0::00000d3d 00              ??         00h
     0::00000d3e 00              ??         00h
     0::00000d3f 00              ??         00h
     0::00000d40 00              ??         00h
     0::00000d41 00              ??         00h
     0::00000d42 00              ??         00h
     0::00000d43 00              ??         00h
     0::00000d44 00              ??         00h
     0::00000d45 00              ??         00h
     0::00000d46 00              ??         00h
     0::00000d47 00              ??         00h
     0::00000d48 00              ??         00h
     0::00000d49 00              ??         00h
     0::00000d4a 00              ??         00h
     0::00000d4b 00              ??         00h
     0::00000d4c 00              ??         00h
     0::00000d4d 00              ??         00h
     0::00000d4e 00              ??         00h
     0::00000d4f 00              ??         00h
     0::00000d50 00              ??         00h
     0::00000d51 00              ??         00h
     0::00000d52 00              ??         00h
     0::00000d53 00              ??         00h
     0::00000d54 00              ??         00h
     0::00000d55 00              ??         00h
     0::00000d56 00              ??         00h
     0::00000d57 00              ??         00h
     0::00000d58 00              ??         00h
     0::00000d59 00              ??         00h
     0::00000d5a 00              ??         00h
     0::00000d5b 00              ??         00h
     0::00000d5c 00              ??         00h
     0::00000d5d 00              ??         00h
     0::00000d5e 00              ??         00h
     0::00000d5f 00              ??         00h
     0::00000d60 00              ??         00h
     0::00000d61 00              ??         00h
     0::00000d62 00              ??         00h
     0::00000d63 00              ??         00h
     0::00000d64 00              ??         00h
     0::00000d65 00              ??         00h
     0::00000d66 00              ??         00h
     0::00000d67 00              ??         00h
     0::00000d68 00              ??         00h
     0::00000d69 00              ??         00h
     0::00000d6a 00              ??         00h
     0::00000d6b 00              ??         00h
     0::00000d6c 00              ??         00h
     0::00000d6d 00              ??         00h
     0::00000d6e 00              ??         00h
     0::00000d6f 00              ??         00h
     0::00000d70 00              ??         00h
     0::00000d71 00              ??         00h
     0::00000d72 00              ??         00h
     0::00000d73 00              ??         00h
     0::00000d74 00              ??         00h
     0::00000d75 00              ??         00h
     0::00000d76 00              ??         00h
     0::00000d77 00              ??         00h
     0::00000d78 00              ??         00h
     0::00000d79 00              ??         00h
     0::00000d7a 00              ??         00h
     0::00000d7b 00              ??         00h
     0::00000d7c 00              ??         00h
     0::00000d7d 00              ??         00h
     0::00000d7e 00              ??         00h
     0::00000d7f 00              ??         00h
     0::00000d80 00              ??         00h
     0::00000d81 00              ??         00h
     0::00000d82 00              ??         00h
     0::00000d83 00              ??         00h
     0::00000d84 00              ??         00h
     0::00000d85 00              ??         00h
     0::00000d86 00              ??         00h
     0::00000d87 00              ??         00h
     0::00000d88 00              ??         00h
     0::00000d89 00              ??         00h
     0::00000d8a 00              ??         00h
     0::00000d8b 00              ??         00h
     0::00000d8c 00              ??         00h
     0::00000d8d 00              ??         00h
     0::00000d8e 00              ??         00h
     0::00000d8f 00              ??         00h
     0::00000d90 00              ??         00h
     0::00000d91 00              ??         00h
     0::00000d92 00              ??         00h
     0::00000d93 00              ??         00h
     0::00000d94 00              ??         00h
     0::00000d95 00              ??         00h
     0::00000d96 00              ??         00h
     0::00000d97 00              ??         00h
     0::00000d98 00              ??         00h
     0::00000d99 00              ??         00h
     0::00000d9a 00              ??         00h
     0::00000d9b 00              ??         00h
     0::00000d9c 00              ??         00h
     0::00000d9d 00              ??         00h
     0::00000d9e 00              ??         00h
     0::00000d9f 00              ??         00h
     0::00000da0 00              ??         00h
     0::00000da1 00              ??         00h
     0::00000da2 00              ??         00h
     0::00000da3 00              ??         00h
     0::00000da4 00              ??         00h
     0::00000da5 00              ??         00h
     0::00000da6 00              ??         00h
     0::00000da7 00              ??         00h
     0::00000da8 00              ??         00h
     0::00000da9 00              ??         00h
     0::00000daa 00              ??         00h
     0::00000dab 00              ??         00h
     0::00000dac 00              ??         00h
     0::00000dad 00              ??         00h
     0::00000dae 00              ??         00h
     0::00000daf 00              ??         00h
     0::00000db0 00              ??         00h
     0::00000db1 00              ??         00h
     0::00000db2 00              ??         00h
     0::00000db3 00              ??         00h
     0::00000db4 00              ??         00h
     0::00000db5 00              ??         00h
     0::00000db6 00              ??         00h
     0::00000db7 00              ??         00h
     0::00000db8 00              ??         00h
     0::00000db9 00              ??         00h
     0::00000dba 00              ??         00h
     0::00000dbb 00              ??         00h
     0::00000dbc 00              ??         00h
     0::00000dbd 00              ??         00h
     0::00000dbe 00              ??         00h
     0::00000dbf 00              ??         00h
     0::00000dc0 00              ??         00h
     0::00000dc1 00              ??         00h
     0::00000dc2 00              ??         00h
     0::00000dc3 00              ??         00h
     0::00000dc4 00              ??         00h
     0::00000dc5 00              ??         00h
     0::00000dc6 00              ??         00h
     0::00000dc7 00              ??         00h
     0::00000dc8 00              ??         00h
     0::00000dc9 00              ??         00h
     0::00000dca 00              ??         00h
     0::00000dcb 00              ??         00h
     0::00000dcc 00              ??         00h
     0::00000dcd 00              ??         00h
     0::00000dce 00              ??         00h
     0::00000dcf 00              ??         00h
     0::00000dd0 00              ??         00h
     0::00000dd1 00              ??         00h
     0::00000dd2 00              ??         00h
     0::00000dd3 00              ??         00h
     0::00000dd4 00              ??         00h
     0::00000dd5 00              ??         00h
     0::00000dd6 00              ??         00h
     0::00000dd7 00              ??         00h
     0::00000dd8 00              ??         00h
     0::00000dd9 00              ??         00h
     0::00000dda 00              ??         00h
     0::00000ddb 00              ??         00h
     0::00000ddc 00              ??         00h
     0::00000ddd 00              ??         00h
     0::00000dde 00              ??         00h
     0::00000ddf 00              ??         00h
     0::00000de0 00              ??         00h
     0::00000de1 00              ??         00h
     0::00000de2 00              ??         00h
     0::00000de3 00              ??         00h
     0::00000de4 00              ??         00h
     0::00000de5 00              ??         00h
     0::00000de6 00              ??         00h
     0::00000de7 00              ??         00h
     0::00000de8 00              ??         00h
     0::00000de9 00              ??         00h
     0::00000dea 00              ??         00h
     0::00000deb 00              ??         00h
     0::00000dec 00              ??         00h
     0::00000ded 00              ??         00h
     0::00000dee 00              ??         00h
     0::00000def 00              ??         00h
     0::00000df0 00              ??         00h
     0::00000df1 00              ??         00h
     0::00000df2 00              ??         00h
     0::00000df3 00              ??         00h
     0::00000df4 00              ??         00h
     0::00000df5 00              ??         00h
     0::00000df6 00              ??         00h
     0::00000df7 00              ??         00h
     0::00000df8 00              ??         00h
     0::00000df9 00              ??         00h
     0::00000dfa 00              ??         00h
     0::00000dfb 00              ??         00h
     0::00000dfc 00              ??         00h
     0::00000dfd 00              ??         00h
     0::00000dfe 00              ??         00h
     0::00000dff 00              ??         00h
     0::00000e00 00              ??         00h
     0::00000e01 00              ??         00h
     0::00000e02 00              ??         00h
     0::00000e03 00              ??         00h
     0::00000e04 00              ??         00h
     0::00000e05 00              ??         00h
     0::00000e06 00              ??         00h
     0::00000e07 00              ??         00h
     0::00000e08 00              ??         00h
     0::00000e09 00              ??         00h
     0::00000e0a 00              ??         00h
     0::00000e0b 00              ??         00h
     0::00000e0c 00              ??         00h
     0::00000e0d 00              ??         00h
     0::00000e0e 00              ??         00h
     0::00000e0f 00              ??         00h
     0::00000e10 00              ??         00h
     0::00000e11 00              ??         00h
     0::00000e12 00              ??         00h
     0::00000e13 00              ??         00h
     0::00000e14 00              ??         00h
     0::00000e15 00              ??         00h
     0::00000e16 00              ??         00h
     0::00000e17 00              ??         00h
     0::00000e18 00              ??         00h
     0::00000e19 00              ??         00h
     0::00000e1a 00              ??         00h
     0::00000e1b 00              ??         00h
     0::00000e1c 00              ??         00h
     0::00000e1d 00              ??         00h
     0::00000e1e 00              ??         00h
     0::00000e1f 00              ??         00h
     0::00000e20 00              ??         00h
     0::00000e21 00              ??         00h
     0::00000e22 00              ??         00h
     0::00000e23 00              ??         00h
     0::00000e24 00              ??         00h
     0::00000e25 00              ??         00h
     0::00000e26 00              ??         00h
     0::00000e27 00              ??         00h
     0::00000e28 00              ??         00h
     0::00000e29 00              ??         00h
     0::00000e2a 00              ??         00h
     0::00000e2b 00              ??         00h
     0::00000e2c 00              ??         00h
     0::00000e2d 00              ??         00h
     0::00000e2e 00              ??         00h
     0::00000e2f 00              ??         00h
     0::00000e30 00              ??         00h
     0::00000e31 00              ??         00h
     0::00000e32 00              ??         00h
     0::00000e33 00              ??         00h
     0::00000e34 00              ??         00h
     0::00000e35 00              ??         00h
     0::00000e36 00              ??         00h
     0::00000e37 00              ??         00h
     0::00000e38 00              ??         00h
     0::00000e39 00              ??         00h
     0::00000e3a 00              ??         00h
     0::00000e3b 00              ??         00h
     0::00000e3c 00              ??         00h
     0::00000e3d 00              ??         00h
     0::00000e3e 00              ??         00h
     0::00000e3f 00              ??         00h
     0::00000e40 00              ??         00h
     0::00000e41 00              ??         00h
     0::00000e42 00              ??         00h
     0::00000e43 00              ??         00h
     0::00000e44 00              ??         00h
     0::00000e45 00              ??         00h
     0::00000e46 00              ??         00h
     0::00000e47 00              ??         00h
     0::00000e48 00              ??         00h
     0::00000e49 00              ??         00h
     0::00000e4a 00              ??         00h
     0::00000e4b 00              ??         00h
     0::00000e4c 00              ??         00h
     0::00000e4d 00              ??         00h
     0::00000e4e 00              ??         00h
     0::00000e4f 00              ??         00h
     0::00000e50 00              ??         00h
     0::00000e51 00              ??         00h
     0::00000e52 00              ??         00h
     0::00000e53 00              ??         00h
     0::00000e54 00              ??         00h
     0::00000e55 00              ??         00h
     0::00000e56 00              ??         00h
     0::00000e57 00              ??         00h
     0::00000e58 00              ??         00h
     0::00000e59 00              ??         00h
     0::00000e5a 00              ??         00h
     0::00000e5b 00              ??         00h
     0::00000e5c 00              ??         00h
     0::00000e5d 00              ??         00h
     0::00000e5e 00              ??         00h
     0::00000e5f 00              ??         00h
     0::00000e60 00              ??         00h
     0::00000e61 00              ??         00h
     0::00000e62 00              ??         00h
     0::00000e63 00              ??         00h
     0::00000e64 00              ??         00h
     0::00000e65 00              ??         00h
     0::00000e66 00              ??         00h
     0::00000e67 00              ??         00h
     0::00000e68 00              ??         00h
     0::00000e69 00              ??         00h
     0::00000e6a 00              ??         00h
     0::00000e6b 00              ??         00h
     0::00000e6c 00              ??         00h
     0::00000e6d 00              ??         00h
     0::00000e6e 00              ??         00h
     0::00000e6f 00              ??         00h
     0::00000e70 00              ??         00h
     0::00000e71 00              ??         00h
     0::00000e72 00              ??         00h
     0::00000e73 00              ??         00h
     0::00000e74 00              ??         00h
     0::00000e75 00              ??         00h
     0::00000e76 00              ??         00h
     0::00000e77 00              ??         00h
     0::00000e78 00              ??         00h
     0::00000e79 00              ??         00h
     0::00000e7a 00              ??         00h
     0::00000e7b 00              ??         00h
     0::00000e7c 00              ??         00h
     0::00000e7d 00              ??         00h
     0::00000e7e 00              ??         00h
     0::00000e7f 00              ??         00h
     0::00000e80 00              ??         00h
     0::00000e81 00              ??         00h
     0::00000e82 00              ??         00h
     0::00000e83 00              ??         00h
     0::00000e84 00              ??         00h
     0::00000e85 00              ??         00h
     0::00000e86 00              ??         00h
     0::00000e87 00              ??         00h
     0::00000e88 00              ??         00h
     0::00000e89 00              ??         00h
     0::00000e8a 00              ??         00h
     0::00000e8b 00              ??         00h
     0::00000e8c 00              ??         00h
     0::00000e8d 00              ??         00h
     0::00000e8e 00              ??         00h
     0::00000e8f 00              ??         00h
     0::00000e90 00              ??         00h
     0::00000e91 00              ??         00h
     0::00000e92 00              ??         00h
     0::00000e93 00              ??         00h
     0::00000e94 00              ??         00h
     0::00000e95 00              ??         00h
     0::00000e96 00              ??         00h
     0::00000e97 00              ??         00h
     0::00000e98 00              ??         00h
     0::00000e99 00              ??         00h
     0::00000e9a 00              ??         00h
     0::00000e9b 00              ??         00h
     0::00000e9c 00              ??         00h
     0::00000e9d 00              ??         00h
     0::00000e9e 00              ??         00h
     0::00000e9f 00              ??         00h
     0::00000ea0 00              ??         00h
     0::00000ea1 00              ??         00h
     0::00000ea2 00              ??         00h
     0::00000ea3 00              ??         00h
     0::00000ea4 00              ??         00h
     0::00000ea5 00              ??         00h
     0::00000ea6 00              ??         00h
     0::00000ea7 00              ??         00h
     0::00000ea8 00              ??         00h
     0::00000ea9 00              ??         00h
     0::00000eaa 00              ??         00h
     0::00000eab 00              ??         00h
     0::00000eac 00              ??         00h
     0::00000ead 00              ??         00h
     0::00000eae 00              ??         00h
     0::00000eaf 00              ??         00h
     0::00000eb0 00              ??         00h
     0::00000eb1 00              ??         00h
     0::00000eb2 00              ??         00h
     0::00000eb3 00              ??         00h
     0::00000eb4 00              ??         00h
     0::00000eb5 00              ??         00h
     0::00000eb6 00              ??         00h
     0::00000eb7 00              ??         00h
     0::00000eb8 00              ??         00h
     0::00000eb9 00              ??         00h
     0::00000eba 00              ??         00h
     0::00000ebb 00              ??         00h
     0::00000ebc 00              ??         00h
     0::00000ebd 00              ??         00h
     0::00000ebe 00              ??         00h
     0::00000ebf 00              ??         00h
     0::00000ec0 00              ??         00h
     0::00000ec1 00              ??         00h
     0::00000ec2 00              ??         00h
     0::00000ec3 00              ??         00h
     0::00000ec4 00              ??         00h
     0::00000ec5 00              ??         00h
     0::00000ec6 00              ??         00h
     0::00000ec7 00              ??         00h
     0::00000ec8 00              ??         00h
     0::00000ec9 00              ??         00h
     0::00000eca 00              ??         00h
     0::00000ecb 00              ??         00h
     0::00000ecc 00              ??         00h
     0::00000ecd 00              ??         00h
     0::00000ece 00              ??         00h
     0::00000ecf 00              ??         00h
     0::00000ed0 00              ??         00h
     0::00000ed1 00              ??         00h
     0::00000ed2 00              ??         00h
     0::00000ed3 00              ??         00h
     0::00000ed4 00              ??         00h
     0::00000ed5 00              ??         00h
     0::00000ed6 00              ??         00h
     0::00000ed7 00              ??         00h
     0::00000ed8 00              ??         00h
     0::00000ed9 00              ??         00h
     0::00000eda 00              ??         00h
     0::00000edb 00              ??         00h
     0::00000edc 00              ??         00h
     0::00000edd 00              ??         00h
     0::00000ede 00              ??         00h
     0::00000edf 00              ??         00h
     0::00000ee0 00              ??         00h
     0::00000ee1 00              ??         00h
     0::00000ee2 00              ??         00h
     0::00000ee3 00              ??         00h
     0::00000ee4 00              ??         00h
     0::00000ee5 00              ??         00h
     0::00000ee6 00              ??         00h
     0::00000ee7 00              ??         00h
     0::00000ee8 00              ??         00h
     0::00000ee9 00              ??         00h
     0::00000eea 00              ??         00h
     0::00000eeb 00              ??         00h
     0::00000eec 00              ??         00h
     0::00000eed 00              ??         00h
     0::00000eee 00              ??         00h
     0::00000eef 00              ??         00h
     0::00000ef0 00              ??         00h
     0::00000ef1 00              ??         00h
     0::00000ef2 00              ??         00h
     0::00000ef3 00              ??         00h
     0::00000ef4 00              ??         00h
     0::00000ef5 00              ??         00h
     0::00000ef6 00              ??         00h
     0::00000ef7 00              ??         00h
     0::00000ef8 00              ??         00h
     0::00000ef9 00              ??         00h
     0::00000efa 00              ??         00h
     0::00000efb 00              ??         00h
     0::00000efc 00              ??         00h
     0::00000efd 00              ??         00h
     0::00000efe 00              ??         00h
     0::00000eff 00              ??         00h
     0::00000f00 00              ??         00h
     0::00000f01 00              ??         00h
     0::00000f02 00              ??         00h
     0::00000f03 00              ??         00h
     0::00000f04 00              ??         00h
     0::00000f05 00              ??         00h
     0::00000f06 00              ??         00h
     0::00000f07 00              ??         00h
     0::00000f08 00              ??         00h
     0::00000f09 00              ??         00h
     0::00000f0a 00              ??         00h
     0::00000f0b 00              ??         00h
     0::00000f0c 00              ??         00h
     0::00000f0d 00              ??         00h
     0::00000f0e 00              ??         00h
     0::00000f0f 00              ??         00h
     0::00000f10 00              ??         00h
     0::00000f11 00              ??         00h
     0::00000f12 00              ??         00h
     0::00000f13 00              ??         00h
     0::00000f14 00              ??         00h
     0::00000f15 00              ??         00h
     0::00000f16 00              ??         00h
     0::00000f17 00              ??         00h
     0::00000f18 00              ??         00h
     0::00000f19 00              ??         00h
     0::00000f1a 00              ??         00h
     0::00000f1b 00              ??         00h
     0::00000f1c 00              ??         00h
     0::00000f1d 00              ??         00h
     0::00000f1e 00              ??         00h
     0::00000f1f 00              ??         00h
     0::00000f20 00              ??         00h
     0::00000f21 00              ??         00h
     0::00000f22 00              ??         00h
     0::00000f23 00              ??         00h
     0::00000f24 00              ??         00h
     0::00000f25 00              ??         00h
     0::00000f26 00              ??         00h
     0::00000f27 00              ??         00h
     0::00000f28 00              ??         00h
     0::00000f29 00              ??         00h
     0::00000f2a 00              ??         00h
     0::00000f2b 00              ??         00h
     0::00000f2c 00              ??         00h
     0::00000f2d 00              ??         00h
     0::00000f2e 00              ??         00h
     0::00000f2f 00              ??         00h
     0::00000f30 00              ??         00h
     0::00000f31 00              ??         00h
     0::00000f32 00              ??         00h
     0::00000f33 00              ??         00h
     0::00000f34 00              ??         00h
     0::00000f35 00              ??         00h
     0::00000f36 00              ??         00h
     0::00000f37 00              ??         00h
     0::00000f38 00              ??         00h
     0::00000f39 00              ??         00h
     0::00000f3a 00              ??         00h
     0::00000f3b 00              ??         00h
     0::00000f3c 00              ??         00h
     0::00000f3d 00              ??         00h
     0::00000f3e 00              ??         00h
     0::00000f3f 00              ??         00h
     0::00000f40 00              ??         00h
     0::00000f41 00              ??         00h
     0::00000f42 00              ??         00h
     0::00000f43 00              ??         00h
     0::00000f44 00              ??         00h
     0::00000f45 00              ??         00h
     0::00000f46 00              ??         00h
     0::00000f47 00              ??         00h
     0::00000f48 00              ??         00h
     0::00000f49 00              ??         00h
     0::00000f4a 00              ??         00h
     0::00000f4b 00              ??         00h
     0::00000f4c 00              ??         00h
     0::00000f4d 00              ??         00h
     0::00000f4e 00              ??         00h
     0::00000f4f 00              ??         00h
     0::00000f50 00              ??         00h
     0::00000f51 00              ??         00h
     0::00000f52 00              ??         00h
     0::00000f53 00              ??         00h
     0::00000f54 00              ??         00h
     0::00000f55 00              ??         00h
     0::00000f56 00              ??         00h
     0::00000f57 00              ??         00h
     0::00000f58 00              ??         00h
     0::00000f59 00              ??         00h
     0::00000f5a 00              ??         00h
     0::00000f5b 00              ??         00h
     0::00000f5c 00              ??         00h
     0::00000f5d 00              ??         00h
     0::00000f5e 00              ??         00h
     0::00000f5f 00              ??         00h
     0::00000f60 00              ??         00h
     0::00000f61 00              ??         00h
     0::00000f62 00              ??         00h
     0::00000f63 00              ??         00h
     0::00000f64 00              ??         00h
     0::00000f65 00              ??         00h
     0::00000f66 00              ??         00h
     0::00000f67 00              ??         00h
     0::00000f68 00              ??         00h
     0::00000f69 00              ??         00h
     0::00000f6a 00              ??         00h
     0::00000f6b 00              ??         00h
     0::00000f6c 00              ??         00h
     0::00000f6d 00              ??         00h
     0::00000f6e 00              ??         00h
     0::00000f6f 00              ??         00h
     0::00000f70 00              ??         00h
     0::00000f71 00              ??         00h
     0::00000f72 00              ??         00h
     0::00000f73 00              ??         00h
     0::00000f74 00              ??         00h
     0::00000f75 00              ??         00h
     0::00000f76 00              ??         00h
     0::00000f77 00              ??         00h
     0::00000f78 00              ??         00h
     0::00000f79 00              ??         00h
     0::00000f7a 00              ??         00h
     0::00000f7b 00              ??         00h
     0::00000f7c 00              ??         00h
     0::00000f7d 00              ??         00h
     0::00000f7e 00              ??         00h
     0::00000f7f 00              ??         00h
     0::00000f80 00              ??         00h
     0::00000f81 00              ??         00h
     0::00000f82 00              ??         00h
     0::00000f83 00              ??         00h
     0::00000f84 00              ??         00h
     0::00000f85 00              ??         00h
     0::00000f86 00              ??         00h
     0::00000f87 00              ??         00h
     0::00000f88 00              ??         00h
     0::00000f89 00              ??         00h
     0::00000f8a 00              ??         00h
     0::00000f8b 00              ??         00h
     0::00000f8c 00              ??         00h
     0::00000f8d 00              ??         00h
     0::00000f8e 00              ??         00h
     0::00000f8f 00              ??         00h
     0::00000f90 00              ??         00h
     0::00000f91 00              ??         00h
     0::00000f92 00              ??         00h
     0::00000f93 00              ??         00h
     0::00000f94 00              ??         00h
     0::00000f95 00              ??         00h
     0::00000f96 00              ??         00h
     0::00000f97 00              ??         00h
     0::00000f98 00              ??         00h
     0::00000f99 00              ??         00h
     0::00000f9a 00              ??         00h
     0::00000f9b 00              ??         00h
     0::00000f9c 00              ??         00h
     0::00000f9d 00              ??         00h
     0::00000f9e 00              ??         00h
     0::00000f9f 00              ??         00h
     0::00000fa0 00              ??         00h
     0::00000fa1 00              ??         00h
     0::00000fa2 00              ??         00h
     0::00000fa3 00              ??         00h
     0::00000fa4 00              ??         00h
     0::00000fa5 00              ??         00h
     0::00000fa6 00              ??         00h
     0::00000fa7 00              ??         00h
     0::00000fa8 00              ??         00h
     0::00000fa9 00              ??         00h
     0::00000faa 00              ??         00h
     0::00000fab 00              ??         00h
     0::00000fac 00              ??         00h
     0::00000fad 00              ??         00h
     0::00000fae 00              ??         00h
     0::00000faf 00              ??         00h
     0::00000fb0 00              ??         00h
     0::00000fb1 00              ??         00h
     0::00000fb2 00              ??         00h
     0::00000fb3 00              ??         00h
     0::00000fb4 00              ??         00h
     0::00000fb5 00              ??         00h
     0::00000fb6 00              ??         00h
     0::00000fb7 00              ??         00h
     0::00000fb8 00              ??         00h
     0::00000fb9 00              ??         00h
     0::00000fba 00              ??         00h
     0::00000fbb 00              ??         00h
     0::00000fbc 00              ??         00h
     0::00000fbd 00              ??         00h
     0::00000fbe 00              ??         00h
     0::00000fbf 00              ??         00h
     0::00000fc0 00              ??         00h
     0::00000fc1 00              ??         00h
     0::00000fc2 00              ??         00h
     0::00000fc3 00              ??         00h
     0::00000fc4 00              ??         00h
     0::00000fc5 00              ??         00h
     0::00000fc6 00              ??         00h
     0::00000fc7 00              ??         00h
     0::00000fc8 00              ??         00h
     0::00000fc9 00              ??         00h
     0::00000fca 00              ??         00h
     0::00000fcb 00              ??         00h
     0::00000fcc 00              ??         00h
     0::00000fcd 00              ??         00h
     0::00000fce 00              ??         00h
     0::00000fcf 00              ??         00h
     0::00000fd0 00              ??         00h
     0::00000fd1 00              ??         00h
     0::00000fd2 00              ??         00h
     0::00000fd3 00              ??         00h
     0::00000fd4 00              ??         00h
     0::00000fd5 00              ??         00h
     0::00000fd6 00              ??         00h
     0::00000fd7 00              ??         00h
     0::00000fd8 00              ??         00h
     0::00000fd9 00              ??         00h
     0::00000fda 00              ??         00h
     0::00000fdb 00              ??         00h
     0::00000fdc 00              ??         00h
     0::00000fdd 00              ??         00h
     0::00000fde 00              ??         00h
     0::00000fdf 00              ??         00h
     0::00000fe0 00              ??         00h
     0::00000fe1 00              ??         00h
     0::00000fe2 00              ??         00h
     0::00000fe3 00              ??         00h
     0::00000fe4 00              ??         00h
     0::00000fe5 00              ??         00h
     0::00000fe6 00              ??         00h
     0::00000fe7 00              ??         00h
     0::00000fe8 00              ??         00h
     0::00000fe9 00              ??         00h
     0::00000fea 00              ??         00h
     0::00000feb 00              ??         00h
     0::00000fec 00              ??         00h
     0::00000fed 00              ??         00h
     0::00000fee 00              ??         00h
     0::00000fef 00              ??         00h
     0::00000ff0 00              ??         00h
     0::00000ff1 00              ??         00h
     0::00000ff2 00              ??         00h
     0::00000ff3 00              ??         00h
     0::00000ff4 00              ??         00h
     0::00000ff5 00              ??         00h
     0::00000ff6 00              ??         00h
     0::00000ff7 00              ??         00h
     0::00000ff8 00              ??         00h
     0::00000ff9 00              ??         00h
     0::00000ffa 00              ??         00h
     0::00000ffb 00              ??         00h
     0::00000ffc 00              ??         00h
     0::00000ffd 00              ??         00h
     0::00000ffe 00              ??         00h
     0::00000fff 00              ??         00h
     0::00001000 00              ??         00h
     0::00001001 00              ??         00h
     0::00001002 00              ??         00h
     0::00001003 00              ??         00h
     0::00001004 00              ??         00h
     0::00001005 00              ??         00h
     0::00001006 00              ??         00h
     0::00001007 00              ??         00h
     0::00001008 00              ??         00h
     0::00001009 00              ??         00h
     0::0000100a 00              ??         00h
     0::0000100b 00              ??         00h
     0::0000100c 00              ??         00h
     0::0000100d 00              ??         00h
     0::0000100e 00              ??         00h
     0::0000100f 00              ??         00h
     0::00001010 00              ??         00h
     0::00001011 00              ??         00h
     0::00001012 00              ??         00h
     0::00001013 00              ??         00h
     0::00001014 00              ??         00h
     0::00001015 00              ??         00h
     0::00001016 00              ??         00h
     0::00001017 00              ??         00h
     0::00001018 00              ??         00h
     0::00001019 00              ??         00h
     0::0000101a 00              ??         00h
     0::0000101b 00              ??         00h
     0::0000101c 00              ??         00h
     0::0000101d 00              ??         00h
     0::0000101e 00              ??         00h
     0::0000101f 00              ??         00h
     0::00001020 00              ??         00h
     0::00001021 00              ??         00h
     0::00001022 00              ??         00h
     0::00001023 00              ??         00h
     0::00001024 00              ??         00h
     0::00001025 00              ??         00h
     0::00001026 00              ??         00h
     0::00001027 00              ??         00h
     0::00001028 00              ??         00h
     0::00001029 00              ??         00h
     0::0000102a 00              ??         00h
     0::0000102b 00              ??         00h
     0::0000102c 00              ??         00h
     0::0000102d 00              ??         00h
     0::0000102e 00              ??         00h
     0::0000102f 00              ??         00h
     0::00001030 00              ??         00h
     0::00001031 00              ??         00h
     0::00001032 00              ??         00h
     0::00001033 00              ??         00h
     0::00001034 00              ??         00h
     0::00001035 00              ??         00h
     0::00001036 00              ??         00h
     0::00001037 00              ??         00h
     0::00001038 00              ??         00h
     0::00001039 00              ??         00h
     0::0000103a 00              ??         00h
     0::0000103b 00              ??         00h
     0::0000103c 00              ??         00h
     0::0000103d 00              ??         00h
     0::0000103e 00              ??         00h
     0::0000103f 00              ??         00h
     0::00001040 00              ??         00h
     0::00001041 00              ??         00h
     0::00001042 00              ??         00h
     0::00001043 00              ??         00h
     0::00001044 00              ??         00h
     0::00001045 00              ??         00h
     0::00001046 00              ??         00h
     0::00001047 00              ??         00h
     0::00001048 00              ??         00h
     0::00001049 00              ??         00h
     0::0000104a 00              ??         00h
     0::0000104b 00              ??         00h
     0::0000104c 00              ??         00h
     0::0000104d 00              ??         00h
     0::0000104e 00              ??         00h
     0::0000104f 00              ??         00h
     0::00001050 00              ??         00h
     0::00001051 00              ??         00h
     0::00001052 00              ??         00h
     0::00001053 00              ??         00h
     0::00001054 00              ??         00h
     0::00001055 00              ??         00h
     0::00001056 00              ??         00h
     0::00001057 00              ??         00h
     0::00001058 00              ??         00h
     0::00001059 00              ??         00h
     0::0000105a 00              ??         00h
     0::0000105b 00              ??         00h
     0::0000105c 00              ??         00h
     0::0000105d 00              ??         00h
     0::0000105e 00              ??         00h
     0::0000105f 00              ??         00h
     0::00001060 00              ??         00h
     0::00001061 00              ??         00h
     0::00001062 00              ??         00h
     0::00001063 00              ??         00h
     0::00001064 00              ??         00h
     0::00001065 00              ??         00h
     0::00001066 00              ??         00h
     0::00001067 00              ??         00h
     0::00001068 00              ??         00h
     0::00001069 00              ??         00h
     0::0000106a 00              ??         00h
     0::0000106b 00              ??         00h
     0::0000106c 00              ??         00h
     0::0000106d 00              ??         00h
     0::0000106e 00              ??         00h
     0::0000106f 00              ??         00h
     0::00001070 00              ??         00h
     0::00001071 00              ??         00h
     0::00001072 00              ??         00h
     0::00001073 00              ??         00h
     0::00001074 00              ??         00h
     0::00001075 00              ??         00h
     0::00001076 00              ??         00h
     0::00001077 00              ??         00h
     0::00001078 00              ??         00h
     0::00001079 00              ??         00h
     0::0000107a 00              ??         00h
     0::0000107b 00              ??         00h
     0::0000107c 00              ??         00h
     0::0000107d 00              ??         00h
     0::0000107e 00              ??         00h
     0::0000107f 00              ??         00h
     0::00001080 00              ??         00h
     0::00001081 00              ??         00h
     0::00001082 00              ??         00h
     0::00001083 00              ??         00h
     0::00001084 00              ??         00h
     0::00001085 00              ??         00h
     0::00001086 00              ??         00h
     0::00001087 00              ??         00h
     0::00001088 00              ??         00h
     0::00001089 00              ??         00h
     0::0000108a 00              ??         00h
     0::0000108b 00              ??         00h
     0::0000108c 00              ??         00h
     0::0000108d 00              ??         00h
     0::0000108e 00              ??         00h
     0::0000108f 00              ??         00h
     0::00001090 00              ??         00h
     0::00001091 00              ??         00h
     0::00001092 00              ??         00h
     0::00001093 00              ??         00h
     0::00001094 00              ??         00h
     0::00001095 00              ??         00h
     0::00001096 00              ??         00h
     0::00001097 00              ??         00h
     0::00001098 00              ??         00h
     0::00001099 00              ??         00h
     0::0000109a 00              ??         00h
     0::0000109b 00              ??         00h
     0::0000109c 00              ??         00h
     0::0000109d 00              ??         00h
     0::0000109e 00              ??         00h
     0::0000109f 00              ??         00h
     0::000010a0 00              ??         00h
     0::000010a1 00              ??         00h
     0::000010a2 00              ??         00h
     0::000010a3 00              ??         00h
     0::000010a4 00              ??         00h
     0::000010a5 00              ??         00h
     0::000010a6 00              ??         00h
     0::000010a7 00              ??         00h
     0::000010a8 00              ??         00h
     0::000010a9 00              ??         00h
     0::000010aa 00              ??         00h
     0::000010ab 00              ??         00h
     0::000010ac 00              ??         00h
     0::000010ad 00              ??         00h
     0::000010ae 00              ??         00h
     0::000010af 00              ??         00h
     0::000010b0 00              ??         00h
     0::000010b1 00              ??         00h
     0::000010b2 00              ??         00h
     0::000010b3 00              ??         00h
     0::000010b4 00              ??         00h
     0::000010b5 00              ??         00h
     0::000010b6 00              ??         00h
     0::000010b7 00              ??         00h
     0::000010b8 00              ??         00h
     0::000010b9 00              ??         00h
     0::000010ba 00              ??         00h
     0::000010bb 00              ??         00h
     0::000010bc 00              ??         00h
     0::000010bd 00              ??         00h
     0::000010be 00              ??         00h
     0::000010bf 00              ??         00h
     0::000010c0 00              ??         00h
     0::000010c1 00              ??         00h
     0::000010c2 00              ??         00h
     0::000010c3 00              ??         00h
     0::000010c4 00              ??         00h
     0::000010c5 00              ??         00h
     0::000010c6 00              ??         00h
     0::000010c7 00              ??         00h
     0::000010c8 00              ??         00h
     0::000010c9 00              ??         00h
     0::000010ca 00              ??         00h
     0::000010cb 00              ??         00h
     0::000010cc 00              ??         00h
     0::000010cd 00              ??         00h
     0::000010ce 00              ??         00h
     0::000010cf 00              ??         00h
     0::000010d0 00              ??         00h
     0::000010d1 00              ??         00h
     0::000010d2 00              ??         00h
     0::000010d3 00              ??         00h
     0::000010d4 00              ??         00h
     0::000010d5 00              ??         00h
     0::000010d6 00              ??         00h
     0::000010d7 00              ??         00h
     0::000010d8 00              ??         00h
     0::000010d9 00              ??         00h
     0::000010da 00              ??         00h
     0::000010db 00              ??         00h
     0::000010dc 00              ??         00h
     0::000010dd 00              ??         00h
     0::000010de 00              ??         00h
     0::000010df 00              ??         00h
     0::000010e0 00              ??         00h
     0::000010e1 00              ??         00h
     0::000010e2 00              ??         00h
     0::000010e3 00              ??         00h
     0::000010e4 00              ??         00h
     0::000010e5 00              ??         00h
     0::000010e6 00              ??         00h
     0::000010e7 00              ??         00h
     0::000010e8 00              ??         00h
     0::000010e9 00              ??         00h
     0::000010ea 00              ??         00h
     0::000010eb 00              ??         00h
     0::000010ec 00              ??         00h
     0::000010ed 00              ??         00h
     0::000010ee 00              ??         00h
     0::000010ef 00              ??         00h
     0::000010f0 00              ??         00h
     0::000010f1 00              ??         00h
     0::000010f2 00              ??         00h
     0::000010f3 00              ??         00h
     0::000010f4 00              ??         00h
     0::000010f5 00              ??         00h
     0::000010f6 00              ??         00h
     0::000010f7 00              ??         00h
     0::000010f8 00              ??         00h
     0::000010f9 00              ??         00h
     0::000010fa 00              ??         00h
     0::000010fb 00              ??         00h
     0::000010fc 00              ??         00h
     0::000010fd 00              ??         00h
     0::000010fe 00              ??         00h
     0::000010ff 00              ??         00h
     0::00001100 00              ??         00h
     0::00001101 00              ??         00h
     0::00001102 00              ??         00h
     0::00001103 00              ??         00h
     0::00001104 00              ??         00h
     0::00001105 00              ??         00h
     0::00001106 00              ??         00h
     0::00001107 00              ??         00h
     0::00001108 00              ??         00h
     0::00001109 00              ??         00h
     0::0000110a 00              ??         00h
     0::0000110b 00              ??         00h
     0::0000110c 00              ??         00h
     0::0000110d 00              ??         00h
     0::0000110e 00              ??         00h
     0::0000110f 00              ??         00h
     0::00001110 00              ??         00h
     0::00001111 00              ??         00h
     0::00001112 00              ??         00h
     0::00001113 00              ??         00h
     0::00001114 00              ??         00h
     0::00001115 00              ??         00h
     0::00001116 00              ??         00h
     0::00001117 00              ??         00h
     0::00001118 00              ??         00h
     0::00001119 00              ??         00h
     0::0000111a 00              ??         00h
     0::0000111b 00              ??         00h
     0::0000111c 00              ??         00h
     0::0000111d 00              ??         00h
     0::0000111e 00              ??         00h
     0::0000111f 00              ??         00h
     0::00001120 00              ??         00h
     0::00001121 00              ??         00h
     0::00001122 00              ??         00h
     0::00001123 00              ??         00h
     0::00001124 00              ??         00h
     0::00001125 00              ??         00h
     0::00001126 00              ??         00h
     0::00001127 00              ??         00h
     0::00001128 00              ??         00h
     0::00001129 00              ??         00h
     0::0000112a 00              ??         00h
     0::0000112b 00              ??         00h
     0::0000112c 00              ??         00h
     0::0000112d 00              ??         00h
     0::0000112e 00              ??         00h
     0::0000112f 00              ??         00h
     0::00001130 00              ??         00h
     0::00001131 00              ??         00h
     0::00001132 00              ??         00h
     0::00001133 00              ??         00h
     0::00001134 00              ??         00h
     0::00001135 00              ??         00h
     0::00001136 00              ??         00h
     0::00001137 00              ??         00h
     0::00001138 00              ??         00h
     0::00001139 00              ??         00h
     0::0000113a 00              ??         00h
     0::0000113b 00              ??         00h
     0::0000113c 00              ??         00h
     0::0000113d 00              ??         00h
     0::0000113e 00              ??         00h
     0::0000113f 00              ??         00h
     0::00001140 00              ??         00h
     0::00001141 00              ??         00h
     0::00001142 00              ??         00h
     0::00001143 00              ??         00h
     0::00001144 00              ??         00h
     0::00001145 00              ??         00h
     0::00001146 00              ??         00h
     0::00001147 00              ??         00h
     0::00001148 00              ??         00h
     0::00001149 00              ??         00h
     0::0000114a 00              ??         00h
     0::0000114b 00              ??         00h
     0::0000114c 00              ??         00h
     0::0000114d 00              ??         00h
     0::0000114e 00              ??         00h
     0::0000114f 00              ??         00h
     0::00001150 00              ??         00h
     0::00001151 00              ??         00h
     0::00001152 00              ??         00h
     0::00001153 00              ??         00h
     0::00001154 00              ??         00h
     0::00001155 00              ??         00h
     0::00001156 00              ??         00h
     0::00001157 00              ??         00h
     0::00001158 00              ??         00h
     0::00001159 00              ??         00h
     0::0000115a 00              ??         00h
     0::0000115b 00              ??         00h
     0::0000115c 00              ??         00h
     0::0000115d 00              ??         00h
     0::0000115e 00              ??         00h
     0::0000115f 00              ??         00h
     0::00001160 00              ??         00h
     0::00001161 00              ??         00h
     0::00001162 00              ??         00h
     0::00001163 00              ??         00h
     0::00001164 00              ??         00h
     0::00001165 00              ??         00h
     0::00001166 00              ??         00h
     0::00001167 00              ??         00h
     0::00001168 00              ??         00h
     0::00001169 00              ??         00h
     0::0000116a 00              ??         00h
     0::0000116b 00              ??         00h
     0::0000116c 00              ??         00h
     0::0000116d 00              ??         00h
     0::0000116e 00              ??         00h
     0::0000116f 00              ??         00h
     0::00001170 00              ??         00h
     0::00001171 00              ??         00h
     0::00001172 00              ??         00h
     0::00001173 00              ??         00h
     0::00001174 00              ??         00h
     0::00001175 00              ??         00h
     0::00001176 00              ??         00h
     0::00001177 00              ??         00h
     0::00001178 00              ??         00h
     0::00001179 00              ??         00h
     0::0000117a 00              ??         00h
     0::0000117b 00              ??         00h
     0::0000117c 00              ??         00h
     0::0000117d 00              ??         00h
     0::0000117e 00              ??         00h
     0::0000117f 00              ??         00h
     0::00001180 00              ??         00h
     0::00001181 00              ??         00h
     0::00001182 00              ??         00h
     0::00001183 00              ??         00h
     0::00001184 00              ??         00h
     0::00001185 00              ??         00h
     0::00001186 00              ??         00h
     0::00001187 00              ??         00h
     0::00001188 00              ??         00h
     0::00001189 00              ??         00h
     0::0000118a 00              ??         00h
     0::0000118b 00              ??         00h
     0::0000118c 00              ??         00h
     0::0000118d 00              ??         00h
     0::0000118e 00              ??         00h
     0::0000118f 00              ??         00h
     0::00001190 00              ??         00h
     0::00001191 00              ??         00h
     0::00001192 00              ??         00h
     0::00001193 00              ??         00h
     0::00001194 00              ??         00h
     0::00001195 00              ??         00h
     0::00001196 00              ??         00h
     0::00001197 00              ??         00h
     0::00001198 00              ??         00h
     0::00001199 00              ??         00h
     0::0000119a 00              ??         00h
     0::0000119b 00              ??         00h
     0::0000119c 00              ??         00h
     0::0000119d 00              ??         00h
     0::0000119e 00              ??         00h
     0::0000119f 00              ??         00h
     0::000011a0 00              ??         00h
     0::000011a1 00              ??         00h
     0::000011a2 00              ??         00h
     0::000011a3 00              ??         00h
     0::000011a4 00              ??         00h
     0::000011a5 00              ??         00h
     0::000011a6 00              ??         00h
     0::000011a7 00              ??         00h
     0::000011a8 00              ??         00h
     0::000011a9 00              ??         00h
     0::000011aa 00              ??         00h
     0::000011ab 00              ??         00h
     0::000011ac 00              ??         00h
     0::000011ad 00              ??         00h
     0::000011ae 00              ??         00h
     0::000011af 00              ??         00h
     0::000011b0 00              ??         00h
     0::000011b1 00              ??         00h
     0::000011b2 00              ??         00h
     0::000011b3 00              ??         00h
     0::000011b4 00              ??         00h
     0::000011b5 00              ??         00h
     0::000011b6 00              ??         00h
     0::000011b7 00              ??         00h
     0::000011b8 00              ??         00h
     0::000011b9 00              ??         00h
     0::000011ba 00              ??         00h
     0::000011bb 00              ??         00h
     0::000011bc 00              ??         00h
     0::000011bd 00              ??         00h
     0::000011be 00              ??         00h
     0::000011bf 00              ??         00h
     0::000011c0 00              ??         00h
     0::000011c1 00              ??         00h
     0::000011c2 00              ??         00h
     0::000011c3 00              ??         00h
     0::000011c4 00              ??         00h
     0::000011c5 00              ??         00h
     0::000011c6 00              ??         00h
     0::000011c7 00              ??         00h
     0::000011c8 00              ??         00h
     0::000011c9 00              ??         00h
     0::000011ca 00              ??         00h
     0::000011cb 00              ??         00h
     0::000011cc 00              ??         00h
     0::000011cd 00              ??         00h
     0::000011ce 00              ??         00h
     0::000011cf 00              ??         00h
     0::000011d0 00              ??         00h
     0::000011d1 00              ??         00h
     0::000011d2 00              ??         00h
     0::000011d3 00              ??         00h
     0::000011d4 00              ??         00h
     0::000011d5 00              ??         00h
     0::000011d6 00              ??         00h
     0::000011d7 00              ??         00h
     0::000011d8 00              ??         00h
     0::000011d9 00              ??         00h
     0::000011da 00              ??         00h
     0::000011db 00              ??         00h
     0::000011dc 00              ??         00h
     0::000011dd 00              ??         00h
     0::000011de 00              ??         00h
     0::000011df 00              ??         00h
     0::000011e0 00              ??         00h
     0::000011e1 00              ??         00h
     0::000011e2 00              ??         00h
     0::000011e3 00              ??         00h
     0::000011e4 00              ??         00h
     0::000011e5 00              ??         00h
     0::000011e6 00              ??         00h
     0::000011e7 00              ??         00h
     0::000011e8 00              ??         00h
     0::000011e9 00              ??         00h
     0::000011ea 00              ??         00h
     0::000011eb 00              ??         00h
     0::000011ec 00              ??         00h
     0::000011ed 00              ??         00h
     0::000011ee 00              ??         00h
     0::000011ef 00              ??         00h
     0::000011f0 00              ??         00h
     0::000011f1 00              ??         00h
     0::000011f2 00              ??         00h
     0::000011f3 00              ??         00h
     0::000011f4 00              ??         00h
     0::000011f5 00              ??         00h
     0::000011f6 00              ??         00h
     0::000011f7 00              ??         00h
     0::000011f8 00              ??         00h
     0::000011f9 00              ??         00h
     0::000011fa 00              ??         00h
     0::000011fb 00              ??         00h
     0::000011fc 00              ??         00h
     0::000011fd 00              ??         00h
     0::000011fe 00              ??         00h
     0::000011ff 00              ??         00h
     0::00001200 00              ??         00h
     0::00001201 00              ??         00h
     0::00001202 00              ??         00h
     0::00001203 00              ??         00h
     0::00001204 00              ??         00h
     0::00001205 00              ??         00h
     0::00001206 00              ??         00h
     0::00001207 00              ??         00h
     0::00001208 00              ??         00h
     0::00001209 00              ??         00h
     0::0000120a 00              ??         00h
     0::0000120b 00              ??         00h
     0::0000120c 00              ??         00h
     0::0000120d 00              ??         00h
     0::0000120e 00              ??         00h
     0::0000120f 00              ??         00h
     0::00001210 00              ??         00h
     0::00001211 00              ??         00h
     0::00001212 00              ??         00h
     0::00001213 00              ??         00h
     0::00001214 00              ??         00h
     0::00001215 00              ??         00h
     0::00001216 00              ??         00h
     0::00001217 00              ??         00h
     0::00001218 00              ??         00h
     0::00001219 00              ??         00h
     0::0000121a 00              ??         00h
     0::0000121b 00              ??         00h
     0::0000121c 00              ??         00h
     0::0000121d 00              ??         00h
     0::0000121e 00              ??         00h
     0::0000121f 00              ??         00h
     0::00001220 00              ??         00h
     0::00001221 00              ??         00h
     0::00001222 00              ??         00h
     0::00001223 00              ??         00h
     0::00001224 00              ??         00h
     0::00001225 00              ??         00h
     0::00001226 00              ??         00h
     0::00001227 00              ??         00h
     0::00001228 00              ??         00h
     0::00001229 00              ??         00h
     0::0000122a 00              ??         00h
     0::0000122b 00              ??         00h
     0::0000122c 00              ??         00h
     0::0000122d 00              ??         00h
     0::0000122e 00              ??         00h
     0::0000122f 00              ??         00h
     0::00001230 00              ??         00h
     0::00001231 00              ??         00h
     0::00001232 00              ??         00h
     0::00001233 00              ??         00h
     0::00001234 00              ??         00h
     0::00001235 00              ??         00h
     0::00001236 00              ??         00h
     0::00001237 00              ??         00h
     0::00001238 00              ??         00h
     0::00001239 00              ??         00h
     0::0000123a 00              ??         00h
     0::0000123b 00              ??         00h
     0::0000123c 00              ??         00h
     0::0000123d 00              ??         00h
     0::0000123e 00              ??         00h
     0::0000123f 00              ??         00h
     0::00001240 00              ??         00h
     0::00001241 00              ??         00h
     0::00001242 00              ??         00h
     0::00001243 00              ??         00h
     0::00001244 00              ??         00h
     0::00001245 00              ??         00h
     0::00001246 00              ??         00h
     0::00001247 00              ??         00h
     0::00001248 00              ??         00h
     0::00001249 00              ??         00h
     0::0000124a 00              ??         00h
     0::0000124b 00              ??         00h
     0::0000124c 00              ??         00h
     0::0000124d 00              ??         00h
     0::0000124e 00              ??         00h
     0::0000124f 00              ??         00h
     0::00001250 00              ??         00h
     0::00001251 00              ??         00h
     0::00001252 00              ??         00h
     0::00001253 00              ??         00h
     0::00001254 00              ??         00h
     0::00001255 00              ??         00h
     0::00001256 00              ??         00h
     0::00001257 00              ??         00h
     0::00001258 00              ??         00h
     0::00001259 00              ??         00h
     0::0000125a 00              ??         00h
     0::0000125b 00              ??         00h
     0::0000125c 00              ??         00h
     0::0000125d 00              ??         00h
     0::0000125e 00              ??         00h
     0::0000125f 00              ??         00h
     0::00001260 00              ??         00h
     0::00001261 00              ??         00h
     0::00001262 00              ??         00h
     0::00001263 00              ??         00h
     0::00001264 00              ??         00h
     0::00001265 00              ??         00h
     0::00001266 00              ??         00h
     0::00001267 00              ??         00h
     0::00001268 00              ??         00h
     0::00001269 00              ??         00h
     0::0000126a 00              ??         00h
     0::0000126b 00              ??         00h
     0::0000126c 00              ??         00h
     0::0000126d 00              ??         00h
     0::0000126e 00              ??         00h
     0::0000126f 00              ??         00h
     0::00001270 00              ??         00h
     0::00001271 00              ??         00h
     0::00001272 00              ??         00h
     0::00001273 00              ??         00h
     0::00001274 00              ??         00h
     0::00001275 00              ??         00h
     0::00001276 00              ??         00h
     0::00001277 00              ??         00h
     0::00001278 00              ??         00h
     0::00001279 00              ??         00h
     0::0000127a 00              ??         00h
     0::0000127b 00              ??         00h
     0::0000127c 00              ??         00h
     0::0000127d 00              ??         00h
     0::0000127e 00              ??         00h
     0::0000127f 00              ??         00h
     0::00001280 00              ??         00h
     0::00001281 00              ??         00h
     0::00001282 00              ??         00h
     0::00001283 00              ??         00h
     0::00001284 00              ??         00h
     0::00001285 00              ??         00h
     0::00001286 00              ??         00h
     0::00001287 00              ??         00h
     0::00001288 00              ??         00h
     0::00001289 00              ??         00h
     0::0000128a 00              ??         00h
     0::0000128b 00              ??         00h
     0::0000128c 00              ??         00h
     0::0000128d 00              ??         00h
     0::0000128e 00              ??         00h
     0::0000128f 00              ??         00h
     0::00001290 00              ??         00h
     0::00001291 00              ??         00h
     0::00001292 00              ??         00h
     0::00001293 00              ??         00h
     0::00001294 00              ??         00h
     0::00001295 00              ??         00h
     0::00001296 00              ??         00h
     0::00001297 00              ??         00h
     0::00001298 00              ??         00h
     0::00001299 00              ??         00h
     0::0000129a 00              ??         00h
     0::0000129b 00              ??         00h
     0::0000129c 00              ??         00h
     0::0000129d 00              ??         00h
     0::0000129e 00              ??         00h
     0::0000129f 00              ??         00h
     0::000012a0 00              ??         00h
     0::000012a1 00              ??         00h
     0::000012a2 00              ??         00h
     0::000012a3 00              ??         00h
     0::000012a4 00              ??         00h
     0::000012a5 00              ??         00h
     0::000012a6 00              ??         00h
     0::000012a7 00              ??         00h
     0::000012a8 00              ??         00h
     0::000012a9 00              ??         00h
     0::000012aa 00              ??         00h
     0::000012ab 00              ??         00h
     0::000012ac 00              ??         00h
     0::000012ad 00              ??         00h
     0::000012ae 00              ??         00h
     0::000012af 00              ??         00h
     0::000012b0 00              ??         00h
     0::000012b1 00              ??         00h
     0::000012b2 00              ??         00h
     0::000012b3 00              ??         00h
     0::000012b4 00              ??         00h
     0::000012b5 00              ??         00h
     0::000012b6 00              ??         00h
     0::000012b7 00              ??         00h
     0::000012b8 00              ??         00h
     0::000012b9 00              ??         00h
     0::000012ba 00              ??         00h
     0::000012bb 00              ??         00h
     0::000012bc 00              ??         00h
     0::000012bd 00              ??         00h
     0::000012be 00              ??         00h
     0::000012bf 00              ??         00h
     0::000012c0 00              ??         00h
     0::000012c1 00              ??         00h
     0::000012c2 00              ??         00h
     0::000012c3 00              ??         00h
     0::000012c4 00              ??         00h
     0::000012c5 00              ??         00h
     0::000012c6 00              ??         00h
     0::000012c7 00              ??         00h
     0::000012c8 00              ??         00h
     0::000012c9 00              ??         00h
     0::000012ca 00              ??         00h
     0::000012cb 00              ??         00h
     0::000012cc 00              ??         00h
     0::000012cd 00              ??         00h
     0::000012ce 00              ??         00h
     0::000012cf 00              ??         00h
     0::000012d0 00              ??         00h
     0::000012d1 00              ??         00h
     0::000012d2 00              ??         00h
     0::000012d3 00              ??         00h
     0::000012d4 00              ??         00h
     0::000012d5 00              ??         00h
     0::000012d6 00              ??         00h
     0::000012d7 00              ??         00h
     0::000012d8 00              ??         00h
     0::000012d9 00              ??         00h
     0::000012da 00              ??         00h
     0::000012db 00              ??         00h
     0::000012dc 00              ??         00h
     0::000012dd 00              ??         00h
     0::000012de 00              ??         00h
     0::000012df 00              ??         00h
     0::000012e0 00              ??         00h
     0::000012e1 00              ??         00h
     0::000012e2 00              ??         00h
     0::000012e3 00              ??         00h
     0::000012e4 00              ??         00h
     0::000012e5 00              ??         00h
     0::000012e6 00              ??         00h
     0::000012e7 00              ??         00h
     0::000012e8 00              ??         00h
     0::000012e9 00              ??         00h
     0::000012ea 00              ??         00h
     0::000012eb 00              ??         00h
     0::000012ec 00              ??         00h
     0::000012ed 00              ??         00h
     0::000012ee 00              ??         00h
     0::000012ef 00              ??         00h
     0::000012f0 00              ??         00h
     0::000012f1 00              ??         00h
     0::000012f2 00              ??         00h
     0::000012f3 00              ??         00h
     0::000012f4 00              ??         00h
     0::000012f5 00              ??         00h
     0::000012f6 00              ??         00h
     0::000012f7 00              ??         00h
     0::000012f8 00              ??         00h
     0::000012f9 00              ??         00h
     0::000012fa 00              ??         00h
     0::000012fb 00              ??         00h
     0::000012fc 00              ??         00h
     0::000012fd 00              ??         00h
     0::000012fe 00              ??         00h
     0::000012ff 00              ??         00h
     0::00001300 00              ??         00h
     0::00001301 00              ??         00h
     0::00001302 00              ??         00h
     0::00001303 00              ??         00h
     0::00001304 00              ??         00h
     0::00001305 00              ??         00h
     0::00001306 00              ??         00h
     0::00001307 00              ??         00h
     0::00001308 00              ??         00h
     0::00001309 00              ??         00h
     0::0000130a 00              ??         00h
     0::0000130b 00              ??         00h
     0::0000130c 00              ??         00h
     0::0000130d 00              ??         00h
     0::0000130e 00              ??         00h
     0::0000130f 00              ??         00h
     0::00001310 00              ??         00h
     0::00001311 00              ??         00h
     0::00001312 00              ??         00h
     0::00001313 00              ??         00h
     0::00001314 00              ??         00h
     0::00001315 00              ??         00h
     0::00001316 00              ??         00h
     0::00001317 00              ??         00h
     0::00001318 00              ??         00h
     0::00001319 00              ??         00h
     0::0000131a 00              ??         00h
     0::0000131b 00              ??         00h
     0::0000131c 00              ??         00h
     0::0000131d 00              ??         00h
     0::0000131e 00              ??         00h
     0::0000131f 00              ??         00h
     0::00001320 00              ??         00h
     0::00001321 00              ??         00h
     0::00001322 00              ??         00h
     0::00001323 00              ??         00h
     0::00001324 00              ??         00h
     0::00001325 00              ??         00h
     0::00001326 00              ??         00h
     0::00001327 00              ??         00h
     0::00001328 00              ??         00h
     0::00001329 00              ??         00h
     0::0000132a 00              ??         00h
     0::0000132b 00              ??         00h
     0::0000132c 00              ??         00h
     0::0000132d 00              ??         00h
     0::0000132e 00              ??         00h
     0::0000132f 00              ??         00h
     0::00001330 00              ??         00h
     0::00001331 00              ??         00h
     0::00001332 00              ??         00h
     0::00001333 00              ??         00h
     0::00001334 00              ??         00h
     0::00001335 00              ??         00h
     0::00001336 00              ??         00h
     0::00001337 00              ??         00h
     0::00001338 00              ??         00h
     0::00001339 00              ??         00h
     0::0000133a 00              ??         00h
     0::0000133b 00              ??         00h
     0::0000133c 00              ??         00h
     0::0000133d 00              ??         00h
     0::0000133e 00              ??         00h
     0::0000133f 00              ??         00h
     0::00001340 00              ??         00h
     0::00001341 00              ??         00h
     0::00001342 00              ??         00h
     0::00001343 00              ??         00h
     0::00001344 00              ??         00h
     0::00001345 00              ??         00h
     0::00001346 00              ??         00h
     0::00001347 00              ??         00h
     0::00001348 00              ??         00h
     0::00001349 00              ??         00h
     0::0000134a 00              ??         00h
     0::0000134b 00              ??         00h
     0::0000134c 00              ??         00h
     0::0000134d 00              ??         00h
     0::0000134e 00              ??         00h
     0::0000134f 00              ??         00h
     0::00001350 00              ??         00h
     0::00001351 00              ??         00h
     0::00001352 00              ??         00h
     0::00001353 00              ??         00h
     0::00001354 00              ??         00h
     0::00001355 00              ??         00h
     0::00001356 00              ??         00h
     0::00001357 00              ??         00h
     0::00001358 00              ??         00h
     0::00001359 00              ??         00h
     0::0000135a 00              ??         00h
     0::0000135b 00              ??         00h
     0::0000135c 00              ??         00h
     0::0000135d 00              ??         00h
     0::0000135e 00              ??         00h
     0::0000135f 00              ??         00h
     0::00001360 00              ??         00h
     0::00001361 00              ??         00h
     0::00001362 00              ??         00h
     0::00001363 00              ??         00h
     0::00001364 00              ??         00h
     0::00001365 00              ??         00h
     0::00001366 00              ??         00h
     0::00001367 00              ??         00h
     0::00001368 00              ??         00h
     0::00001369 00              ??         00h
     0::0000136a 00              ??         00h
     0::0000136b 00              ??         00h
     0::0000136c 00              ??         00h
     0::0000136d 00              ??         00h
     0::0000136e 00              ??         00h
     0::0000136f 00              ??         00h
     0::00001370 00              ??         00h
     0::00001371 00              ??         00h
     0::00001372 00              ??         00h
     0::00001373 00              ??         00h
     0::00001374 00              ??         00h
     0::00001375 00              ??         00h
     0::00001376 00              ??         00h
     0::00001377 00              ??         00h
     0::00001378 00              ??         00h
     0::00001379 00              ??         00h
     0::0000137a 00              ??         00h
     0::0000137b 00              ??         00h
     0::0000137c 00              ??         00h
     0::0000137d 00              ??         00h
     0::0000137e 00              ??         00h
     0::0000137f 00              ??         00h
     0::00001380 00              ??         00h
     0::00001381 00              ??         00h
     0::00001382 00              ??         00h
     0::00001383 00              ??         00h
     0::00001384 00              ??         00h
     0::00001385 00              ??         00h
     0::00001386 00              ??         00h
     0::00001387 00              ??         00h
     0::00001388 00              ??         00h
     0::00001389 00              ??         00h
     0::0000138a 00              ??         00h
     0::0000138b 00              ??         00h
     0::0000138c 00              ??         00h
     0::0000138d 00              ??         00h
     0::0000138e 00              ??         00h
     0::0000138f 00              ??         00h
     0::00001390 00              ??         00h
     0::00001391 00              ??         00h
     0::00001392 00              ??         00h
     0::00001393 00              ??         00h
     0::00001394 00              ??         00h
     0::00001395 00              ??         00h
     0::00001396 00              ??         00h
     0::00001397 00              ??         00h
     0::00001398 00              ??         00h
     0::00001399 00              ??         00h
     0::0000139a 00              ??         00h
     0::0000139b 00              ??         00h
     0::0000139c 00              ??         00h
     0::0000139d 00              ??         00h
     0::0000139e 00              ??         00h
     0::0000139f 00              ??         00h
     0::000013a0 00              ??         00h
     0::000013a1 00              ??         00h
     0::000013a2 00              ??         00h
     0::000013a3 00              ??         00h
     0::000013a4 00              ??         00h
     0::000013a5 00              ??         00h
     0::000013a6 00              ??         00h
     0::000013a7 00              ??         00h
     0::000013a8 00              ??         00h
     0::000013a9 00              ??         00h
     0::000013aa 00              ??         00h
     0::000013ab 00              ??         00h
     0::000013ac 00              ??         00h
     0::000013ad 00              ??         00h
     0::000013ae 00              ??         00h
     0::000013af 00              ??         00h
     0::000013b0 00              ??         00h
     0::000013b1 00              ??         00h
     0::000013b2 00              ??         00h
     0::000013b3 00              ??         00h
     0::000013b4 00              ??         00h
     0::000013b5 00              ??         00h
     0::000013b6 00              ??         00h
     0::000013b7 00              ??         00h
     0::000013b8 00              ??         00h
     0::000013b9 00              ??         00h
     0::000013ba 00              ??         00h
     0::000013bb 00              ??         00h
     0::000013bc 00              ??         00h
     0::000013bd 00              ??         00h
     0::000013be 00              ??         00h
     0::000013bf 00              ??         00h
     0::000013c0 00              ??         00h
     0::000013c1 00              ??         00h
     0::000013c2 00              ??         00h
     0::000013c3 00              ??         00h
     0::000013c4 00              ??         00h
     0::000013c5 00              ??         00h
     0::000013c6 00              ??         00h
     0::000013c7 00              ??         00h
     0::000013c8 00              ??         00h
     0::000013c9 00              ??         00h
     0::000013ca 00              ??         00h
     0::000013cb 00              ??         00h
     0::000013cc 00              ??         00h
     0::000013cd 00              ??         00h
     0::000013ce 00              ??         00h
     0::000013cf 00              ??         00h
     0::000013d0 00              ??         00h
     0::000013d1 00              ??         00h
     0::000013d2 00              ??         00h
     0::000013d3 00              ??         00h
     0::000013d4 00              ??         00h
     0::000013d5 00              ??         00h
     0::000013d6 00              ??         00h
     0::000013d7 00              ??         00h
     0::000013d8 00              ??         00h
     0::000013d9 00              ??         00h
     0::000013da 00              ??         00h
     0::000013db 00              ??         00h
     0::000013dc 00              ??         00h
     0::000013dd 00              ??         00h
     0::000013de 00              ??         00h
     0::000013df 00              ??         00h
     0::000013e0 00              ??         00h
     0::000013e1 00              ??         00h
     0::000013e2 00              ??         00h
     0::000013e3 00              ??         00h
     0::000013e4 00              ??         00h
     0::000013e5 00              ??         00h
     0::000013e6 00              ??         00h
     0::000013e7 00              ??         00h
     0::000013e8 00              ??         00h
     0::000013e9 00              ??         00h
     0::000013ea 00              ??         00h
     0::000013eb 00              ??         00h
     0::000013ec 00              ??         00h
     0::000013ed 00              ??         00h
     0::000013ee 00              ??         00h
     0::000013ef 00              ??         00h
     0::000013f0 00              ??         00h
     0::000013f1 00              ??         00h
     0::000013f2 00              ??         00h
     0::000013f3 00              ??         00h
     0::000013f4 00              ??         00h
     0::000013f5 00              ??         00h
     0::000013f6 00              ??         00h
     0::000013f7 00              ??         00h
     0::000013f8 00              ??         00h
     0::000013f9 00              ??         00h
     0::000013fa 00              ??         00h
     0::000013fb 00              ??         00h
     0::000013fc 00              ??         00h
     0::000013fd 00              ??         00h
     0::000013fe 00              ??         00h
     0::000013ff 00              ??         00h
     0::00001400 00              ??         00h
     0::00001401 00              ??         00h
     0::00001402 00              ??         00h
     0::00001403 00              ??         00h
     0::00001404 00              ??         00h
     0::00001405 00              ??         00h
     0::00001406 00              ??         00h
     0::00001407 00              ??         00h
     0::00001408 00              ??         00h
     0::00001409 00              ??         00h
     0::0000140a 00              ??         00h
     0::0000140b 00              ??         00h
     0::0000140c 00              ??         00h
     0::0000140d 00              ??         00h
     0::0000140e 00              ??         00h
     0::0000140f 00              ??         00h
     0::00001410 00              ??         00h
     0::00001411 00              ??         00h
     0::00001412 00              ??         00h
     0::00001413 00              ??         00h
     0::00001414 00              ??         00h
     0::00001415 00              ??         00h
     0::00001416 00              ??         00h
     0::00001417 00              ??         00h
     0::00001418 00              ??         00h
     0::00001419 00              ??         00h
     0::0000141a 00              ??         00h
     0::0000141b 00              ??         00h
     0::0000141c 00              ??         00h
     0::0000141d 00              ??         00h
     0::0000141e 00              ??         00h
     0::0000141f 00              ??         00h
     0::00001420 00              ??         00h
     0::00001421 00              ??         00h
     0::00001422 00              ??         00h
     0::00001423 00              ??         00h
     0::00001424 00              ??         00h
     0::00001425 00              ??         00h
     0::00001426 00              ??         00h
     0::00001427 00              ??         00h
     0::00001428 00              ??         00h
     0::00001429 00              ??         00h
     0::0000142a 00              ??         00h
     0::0000142b 00              ??         00h
     0::0000142c 00              ??         00h
     0::0000142d 00              ??         00h
     0::0000142e 00              ??         00h
     0::0000142f 00              ??         00h
     0::00001430 00              ??         00h
     0::00001431 00              ??         00h
     0::00001432 00              ??         00h
     0::00001433 00              ??         00h
     0::00001434 00              ??         00h
     0::00001435 00              ??         00h
     0::00001436 00              ??         00h
     0::00001437 00              ??         00h
     0::00001438 00              ??         00h
     0::00001439 00              ??         00h
     0::0000143a 00              ??         00h
     0::0000143b 00              ??         00h
     0::0000143c 00              ??         00h
     0::0000143d 00              ??         00h
     0::0000143e 00              ??         00h
     0::0000143f 00              ??         00h
     0::00001440 00              ??         00h
     0::00001441 00              ??         00h
     0::00001442 00              ??         00h
     0::00001443 00              ??         00h
     0::00001444 00              ??         00h
     0::00001445 00              ??         00h
     0::00001446 00              ??         00h
     0::00001447 00              ??         00h
     0::00001448 00              ??         00h
     0::00001449 00              ??         00h
     0::0000144a 00              ??         00h
     0::0000144b 00              ??         00h
     0::0000144c 00              ??         00h
     0::0000144d 00              ??         00h
     0::0000144e 00              ??         00h
     0::0000144f 00              ??         00h
     0::00001450 00              ??         00h
     0::00001451 00              ??         00h
     0::00001452 00              ??         00h
     0::00001453 00              ??         00h
     0::00001454 00              ??         00h
     0::00001455 00              ??         00h
     0::00001456 00              ??         00h
     0::00001457 00              ??         00h
     0::00001458 00              ??         00h
     0::00001459 00              ??         00h
     0::0000145a 00              ??         00h
     0::0000145b 00              ??         00h
     0::0000145c 00              ??         00h
     0::0000145d 00              ??         00h
     0::0000145e 00              ??         00h
     0::0000145f 00              ??         00h
     0::00001460 00              ??         00h
     0::00001461 00              ??         00h
     0::00001462 00              ??         00h
     0::00001463 00              ??         00h
     0::00001464 00              ??         00h
     0::00001465 00              ??         00h
     0::00001466 00              ??         00h
     0::00001467 00              ??         00h
     0::00001468 00              ??         00h
     0::00001469 00              ??         00h
     0::0000146a 00              ??         00h
     0::0000146b 00              ??         00h
     0::0000146c 00              ??         00h
     0::0000146d 00              ??         00h
     0::0000146e 00              ??         00h
     0::0000146f 00              ??         00h
     0::00001470 00              ??         00h
     0::00001471 00              ??         00h
     0::00001472 00              ??         00h
     0::00001473 00              ??         00h
     0::00001474 00              ??         00h
     0::00001475 00              ??         00h
     0::00001476 00              ??         00h
     0::00001477 00              ??         00h
     0::00001478 00              ??         00h
     0::00001479 00              ??         00h
     0::0000147a 00              ??         00h
     0::0000147b 00              ??         00h
     0::0000147c 00              ??         00h
     0::0000147d 00              ??         00h
     0::0000147e 00              ??         00h
     0::0000147f 00              ??         00h
     0::00001480 00              ??         00h
     0::00001481 00              ??         00h
     0::00001482 00              ??         00h
     0::00001483 00              ??         00h
     0::00001484 00              ??         00h
     0::00001485 00              ??         00h
     0::00001486 00              ??         00h
     0::00001487 00              ??         00h
     0::00001488 00              ??         00h
     0::00001489 00              ??         00h
     0::0000148a 00              ??         00h
     0::0000148b 00              ??         00h
     0::0000148c 00              ??         00h
     0::0000148d 00              ??         00h
     0::0000148e 00              ??         00h
     0::0000148f 00              ??         00h
     0::00001490 00              ??         00h
     0::00001491 00              ??         00h
     0::00001492 00              ??         00h
     0::00001493 00              ??         00h
     0::00001494 00              ??         00h
     0::00001495 00              ??         00h
     0::00001496 00              ??         00h
     0::00001497 00              ??         00h
     0::00001498 00              ??         00h
     0::00001499 00              ??         00h
     0::0000149a 00              ??         00h
     0::0000149b 00              ??         00h
     0::0000149c 00              ??         00h
     0::0000149d 00              ??         00h
     0::0000149e 00              ??         00h
     0::0000149f 00              ??         00h
     0::000014a0 00              ??         00h
     0::000014a1 00              ??         00h
     0::000014a2 00              ??         00h
     0::000014a3 00              ??         00h
     0::000014a4 00              ??         00h
     0::000014a5 00              ??         00h
     0::000014a6 00              ??         00h
     0::000014a7 00              ??         00h
     0::000014a8 00              ??         00h
     0::000014a9 00              ??         00h
     0::000014aa 00              ??         00h
     0::000014ab 00              ??         00h
     0::000014ac 00              ??         00h
     0::000014ad 00              ??         00h
     0::000014ae 00              ??         00h
     0::000014af 00              ??         00h
     0::000014b0 00              ??         00h
     0::000014b1 00              ??         00h
     0::000014b2 00              ??         00h
     0::000014b3 00              ??         00h
     0::000014b4 00              ??         00h
     0::000014b5 00              ??         00h
     0::000014b6 00              ??         00h
     0::000014b7 00              ??         00h
     0::000014b8 00              ??         00h
     0::000014b9 00              ??         00h
     0::000014ba 00              ??         00h
     0::000014bb 00              ??         00h
     0::000014bc 00              ??         00h
     0::000014bd 00              ??         00h
     0::000014be 00              ??         00h
     0::000014bf 00              ??         00h
     0::000014c0 00              ??         00h
     0::000014c1 00              ??         00h
     0::000014c2 00              ??         00h
     0::000014c3 00              ??         00h
     0::000014c4 00              ??         00h
     0::000014c5 00              ??         00h
     0::000014c6 00              ??         00h
     0::000014c7 00              ??         00h
     0::000014c8 00              ??         00h
     0::000014c9 00              ??         00h
     0::000014ca 00              ??         00h
     0::000014cb 00              ??         00h
     0::000014cc 00              ??         00h
     0::000014cd 00              ??         00h
     0::000014ce 00              ??         00h
     0::000014cf 00              ??         00h
     0::000014d0 00              ??         00h
     0::000014d1 00              ??         00h
     0::000014d2 00              ??         00h
     0::000014d3 00              ??         00h
     0::000014d4 00              ??         00h
     0::000014d5 00              ??         00h
     0::000014d6 00              ??         00h
     0::000014d7 00              ??         00h
     0::000014d8 00              ??         00h
     0::000014d9 00              ??         00h
     0::000014da 00              ??         00h
     0::000014db 00              ??         00h
     0::000014dc 00              ??         00h
     0::000014dd 00              ??         00h
     0::000014de 00              ??         00h
     0::000014df 00              ??         00h
     0::000014e0 00              ??         00h
     0::000014e1 00              ??         00h
     0::000014e2 00              ??         00h
     0::000014e3 00              ??         00h
     0::000014e4 00              ??         00h
     0::000014e5 00              ??         00h
     0::000014e6 00              ??         00h
     0::000014e7 00              ??         00h
     0::000014e8 00              ??         00h
     0::000014e9 00              ??         00h
     0::000014ea 00              ??         00h
     0::000014eb 00              ??         00h
     0::000014ec 00              ??         00h
     0::000014ed 00              ??         00h
     0::000014ee 00              ??         00h
     0::000014ef 00              ??         00h
     0::000014f0 00              ??         00h
     0::000014f1 00              ??         00h
     0::000014f2 00              ??         00h
     0::000014f3 00              ??         00h
     0::000014f4 00              ??         00h
     0::000014f5 00              ??         00h
     0::000014f6 00              ??         00h
     0::000014f7 00              ??         00h
     0::000014f8 00              ??         00h
     0::000014f9 00              ??         00h
     0::000014fa 00              ??         00h
     0::000014fb 00              ??         00h
     0::000014fc 00              ??         00h
     0::000014fd 00              ??         00h
     0::000014fe 00              ??         00h
     0::000014ff 00              ??         00h
     0::00001500 00              ??         00h
     0::00001501 00              ??         00h
     0::00001502 00              ??         00h
     0::00001503 00              ??         00h
     0::00001504 00              ??         00h
     0::00001505 00              ??         00h
     0::00001506 00              ??         00h
     0::00001507 00              ??         00h
     0::00001508 00              ??         00h
     0::00001509 00              ??         00h
     0::0000150a 00              ??         00h
     0::0000150b 00              ??         00h
     0::0000150c 00              ??         00h
     0::0000150d 00              ??         00h
     0::0000150e 00              ??         00h
     0::0000150f 00              ??         00h
     0::00001510 00              ??         00h
     0::00001511 00              ??         00h
     0::00001512 00              ??         00h
     0::00001513 00              ??         00h
     0::00001514 00              ??         00h
     0::00001515 00              ??         00h
     0::00001516 00              ??         00h
     0::00001517 00              ??         00h
     0::00001518 00              ??         00h
     0::00001519 00              ??         00h
     0::0000151a 00              ??         00h
     0::0000151b 00              ??         00h
     0::0000151c 00              ??         00h
     0::0000151d 00              ??         00h
     0::0000151e 00              ??         00h
     0::0000151f 00              ??         00h
     0::00001520 00              ??         00h
     0::00001521 00              ??         00h
     0::00001522 00              ??         00h
     0::00001523 00              ??         00h
     0::00001524 00              ??         00h
     0::00001525 00              ??         00h
     0::00001526 00              ??         00h
     0::00001527 00              ??         00h
     0::00001528 00              ??         00h
     0::00001529 00              ??         00h
     0::0000152a 00              ??         00h
     0::0000152b 00              ??         00h
     0::0000152c 00              ??         00h
     0::0000152d 00              ??         00h
     0::0000152e 00              ??         00h
     0::0000152f 00              ??         00h
     0::00001530 00              ??         00h
     0::00001531 00              ??         00h
     0::00001532 00              ??         00h
     0::00001533 00              ??         00h
     0::00001534 00              ??         00h
     0::00001535 00              ??         00h
     0::00001536 00              ??         00h
     0::00001537 00              ??         00h
     0::00001538 00              ??         00h
     0::00001539 00              ??         00h
     0::0000153a 00              ??         00h
     0::0000153b 00              ??         00h
     0::0000153c 00              ??         00h
     0::0000153d 00              ??         00h
     0::0000153e 00              ??         00h
     0::0000153f 00              ??         00h
     0::00001540 00              ??         00h
     0::00001541 00              ??         00h
     0::00001542 00              ??         00h
     0::00001543 00              ??         00h
     0::00001544 00              ??         00h
     0::00001545 00              ??         00h
     0::00001546 00              ??         00h
     0::00001547 00              ??         00h
     0::00001548 00              ??         00h
     0::00001549 00              ??         00h
     0::0000154a 00              ??         00h
     0::0000154b 00              ??         00h
     0::0000154c 00              ??         00h
     0::0000154d 00              ??         00h
     0::0000154e 00              ??         00h
     0::0000154f 00              ??         00h
     0::00001550 00              ??         00h
     0::00001551 00              ??         00h
     0::00001552 00              ??         00h
     0::00001553 00              ??         00h
     0::00001554 00              ??         00h
     0::00001555 00              ??         00h
     0::00001556 00              ??         00h
     0::00001557 00              ??         00h
     0::00001558 00              ??         00h
     0::00001559 00              ??         00h
     0::0000155a 00              ??         00h
     0::0000155b 00              ??         00h
     0::0000155c 00              ??         00h
     0::0000155d 00              ??         00h
     0::0000155e 00              ??         00h
     0::0000155f 00              ??         00h
     0::00001560 00              ??         00h
     0::00001561 00              ??         00h
     0::00001562 00              ??         00h
     0::00001563 00              ??         00h
     0::00001564 00              ??         00h
     0::00001565 00              ??         00h
     0::00001566 00              ??         00h
     0::00001567 00              ??         00h
     0::00001568 00              ??         00h
     0::00001569 00              ??         00h
     0::0000156a 00              ??         00h
     0::0000156b 00              ??         00h
     0::0000156c 00              ??         00h
     0::0000156d 00              ??         00h
     0::0000156e 00              ??         00h
     0::0000156f 00              ??         00h
     0::00001570 00              ??         00h
     0::00001571 00              ??         00h
     0::00001572 00              ??         00h
     0::00001573 00              ??         00h
     0::00001574 00              ??         00h
     0::00001575 00              ??         00h
     0::00001576 00              ??         00h
     0::00001577 00              ??         00h
     0::00001578 00              ??         00h
     0::00001579 00              ??         00h
     0::0000157a 00              ??         00h
     0::0000157b 00              ??         00h
     0::0000157c 00              ??         00h
     0::0000157d 00              ??         00h
     0::0000157e 00              ??         00h
     0::0000157f 00              ??         00h
     0::00001580 00              ??         00h
     0::00001581 00              ??         00h
     0::00001582 00              ??         00h
     0::00001583 00              ??         00h
     0::00001584 00              ??         00h
     0::00001585 00              ??         00h
     0::00001586 00              ??         00h
     0::00001587 00              ??         00h
     0::00001588 00              ??         00h
     0::00001589 00              ??         00h
     0::0000158a 00              ??         00h
     0::0000158b 00              ??         00h
     0::0000158c 00              ??         00h
     0::0000158d 00              ??         00h
     0::0000158e 00              ??         00h
     0::0000158f 00              ??         00h
     0::00001590 00              ??         00h
     0::00001591 00              ??         00h
     0::00001592 00              ??         00h
     0::00001593 00              ??         00h
     0::00001594 00              ??         00h
     0::00001595 00              ??         00h
     0::00001596 00              ??         00h
     0::00001597 00              ??         00h
     0::00001598 00              ??         00h
     0::00001599 00              ??         00h
     0::0000159a 00              ??         00h
     0::0000159b 00              ??         00h
     0::0000159c 00              ??         00h
     0::0000159d 00              ??         00h
     0::0000159e 00              ??         00h
     0::0000159f 00              ??         00h
     0::000015a0 00              ??         00h
     0::000015a1 00              ??         00h
     0::000015a2 00              ??         00h
     0::000015a3 00              ??         00h
     0::000015a4 00              ??         00h
     0::000015a5 00              ??         00h
     0::000015a6 00              ??         00h
     0::000015a7 00              ??         00h
     0::000015a8 00              ??         00h
     0::000015a9 00              ??         00h
     0::000015aa 00              ??         00h
     0::000015ab 00              ??         00h
     0::000015ac 00              ??         00h
     0::000015ad 00              ??         00h
     0::000015ae 00              ??         00h
     0::000015af 00              ??         00h
     0::000015b0 00              ??         00h
     0::000015b1 00              ??         00h
     0::000015b2 00              ??         00h
     0::000015b3 00              ??         00h
     0::000015b4 00              ??         00h
     0::000015b5 00              ??         00h
     0::000015b6 00              ??         00h
     0::000015b7 00              ??         00h
     0::000015b8 00              ??         00h
     0::000015b9 00              ??         00h
     0::000015ba 00              ??         00h
     0::000015bb 00              ??         00h
     0::000015bc 00              ??         00h
     0::000015bd 00              ??         00h
     0::000015be 00              ??         00h
     0::000015bf 00              ??         00h
     0::000015c0 00              ??         00h
     0::000015c1 00              ??         00h
     0::000015c2 00              ??         00h
     0::000015c3 00              ??         00h
     0::000015c4 00              ??         00h
     0::000015c5 00              ??         00h
     0::000015c6 00              ??         00h
     0::000015c7 00              ??         00h
     0::000015c8 00              ??         00h
     0::000015c9 00              ??         00h
     0::000015ca 00              ??         00h
     0::000015cb 00              ??         00h
     0::000015cc 00              ??         00h
     0::000015cd 00              ??         00h
     0::000015ce 00              ??         00h
     0::000015cf 00              ??         00h
     0::000015d0 00              ??         00h
     0::000015d1 00              ??         00h
     0::000015d2 00              ??         00h
     0::000015d3 00              ??         00h
     0::000015d4 00              ??         00h
     0::000015d5 00              ??         00h
     0::000015d6 00              ??         00h
     0::000015d7 00              ??         00h
     0::000015d8 00              ??         00h
     0::000015d9 00              ??         00h
     0::000015da 00              ??         00h
     0::000015db 00              ??         00h
     0::000015dc 00              ??         00h
     0::000015dd 00              ??         00h
     0::000015de 00              ??         00h
     0::000015df 00              ??         00h
     0::000015e0 00              ??         00h
     0::000015e1 00              ??         00h
     0::000015e2 00              ??         00h
     0::000015e3 00              ??         00h
     0::000015e4 00              ??         00h
     0::000015e5 00              ??         00h
     0::000015e6 00              ??         00h
     0::000015e7 00              ??         00h
     0::000015e8 00              ??         00h
     0::000015e9 00              ??         00h
     0::000015ea 00              ??         00h
     0::000015eb 00              ??         00h
     0::000015ec 00              ??         00h
     0::000015ed 00              ??         00h
     0::000015ee 00              ??         00h
     0::000015ef 00              ??         00h
     0::000015f0 00              ??         00h
     0::000015f1 00              ??         00h
     0::000015f2 00              ??         00h
     0::000015f3 00              ??         00h
     0::000015f4 00              ??         00h
     0::000015f5 00              ??         00h
     0::000015f6 00              ??         00h
     0::000015f7 00              ??         00h
     0::000015f8 00              ??         00h
     0::000015f9 00              ??         00h
     0::000015fa 00              ??         00h
     0::000015fb 00              ??         00h
     0::000015fc 00              ??         00h
     0::000015fd 00              ??         00h
     0::000015fe 00              ??         00h
     0::000015ff 00              ??         00h
     0::00001600 00              ??         00h
     0::00001601 00              ??         00h
     0::00001602 00              ??         00h
     0::00001603 00              ??         00h
     0::00001604 00              ??         00h
     0::00001605 00              ??         00h
     0::00001606 00              ??         00h
     0::00001607 00              ??         00h
     0::00001608 00              ??         00h
     0::00001609 00              ??         00h
     0::0000160a 00              ??         00h
     0::0000160b 00              ??         00h
     0::0000160c 00              ??         00h
     0::0000160d 00              ??         00h
     0::0000160e 00              ??         00h
     0::0000160f 00              ??         00h
     0::00001610 00              ??         00h
     0::00001611 00              ??         00h
     0::00001612 00              ??         00h
     0::00001613 00              ??         00h
     0::00001614 00              ??         00h
     0::00001615 00              ??         00h
     0::00001616 00              ??         00h
     0::00001617 00              ??         00h
     0::00001618 00              ??         00h
     0::00001619 00              ??         00h
     0::0000161a 00              ??         00h
     0::0000161b 00              ??         00h
     0::0000161c 00              ??         00h
     0::0000161d 00              ??         00h
     0::0000161e 00              ??         00h
     0::0000161f 00              ??         00h
     0::00001620 00              ??         00h
     0::00001621 00              ??         00h
     0::00001622 00              ??         00h
     0::00001623 00              ??         00h
     0::00001624 00              ??         00h
     0::00001625 00              ??         00h
     0::00001626 00              ??         00h
     0::00001627 00              ??         00h
     0::00001628 00              ??         00h
     0::00001629 00              ??         00h
     0::0000162a 00              ??         00h
     0::0000162b 00              ??         00h
     0::0000162c 00              ??         00h
     0::0000162d 00              ??         00h
     0::0000162e 00              ??         00h
     0::0000162f 00              ??         00h
     0::00001630 00              ??         00h
     0::00001631 00              ??         00h
     0::00001632 00              ??         00h
     0::00001633 00              ??         00h
     0::00001634 00              ??         00h
     0::00001635 00              ??         00h
     0::00001636 00              ??         00h
     0::00001637 00              ??         00h
     0::00001638 00              ??         00h
     0::00001639 00              ??         00h
     0::0000163a 00              ??         00h
     0::0000163b 00              ??         00h
     0::0000163c 00              ??         00h
     0::0000163d 00              ??         00h
     0::0000163e 00              ??         00h
     0::0000163f 00              ??         00h
     0::00001640 00              ??         00h
     0::00001641 00              ??         00h
     0::00001642 00              ??         00h
     0::00001643 00              ??         00h
     0::00001644 00              ??         00h
     0::00001645 00              ??         00h
     0::00001646 00              ??         00h
     0::00001647 00              ??         00h
     0::00001648 00              ??         00h
     0::00001649 00              ??         00h
     0::0000164a 00              ??         00h
     0::0000164b 00              ??         00h
     0::0000164c 00              ??         00h
     0::0000164d 00              ??         00h
     0::0000164e 00              ??         00h
     0::0000164f 00              ??         00h
     0::00001650 00              ??         00h
     0::00001651 00              ??         00h
     0::00001652 00              ??         00h
     0::00001653 00              ??         00h
     0::00001654 00              ??         00h
     0::00001655 00              ??         00h
     0::00001656 00              ??         00h
     0::00001657 00              ??         00h
     0::00001658 00              ??         00h
     0::00001659 00              ??         00h
     0::0000165a 00              ??         00h
     0::0000165b 00              ??         00h
     0::0000165c 00              ??         00h
     0::0000165d 00              ??         00h
     0::0000165e 00              ??         00h
     0::0000165f 00              ??         00h
     0::00001660 00              ??         00h
     0::00001661 00              ??         00h
     0::00001662 00              ??         00h
     0::00001663 00              ??         00h
     0::00001664 00              ??         00h
     0::00001665 00              ??         00h
     0::00001666 00              ??         00h
     0::00001667 00              ??         00h
     0::00001668 00              ??         00h
     0::00001669 00              ??         00h
     0::0000166a 00              ??         00h
     0::0000166b 00              ??         00h
     0::0000166c 00              ??         00h
     0::0000166d 00              ??         00h
     0::0000166e 00              ??         00h
     0::0000166f 00              ??         00h
     0::00001670 00              ??         00h
     0::00001671 00              ??         00h
     0::00001672 00              ??         00h
     0::00001673 00              ??         00h
     0::00001674 00              ??         00h
     0::00001675 00              ??         00h
     0::00001676 00              ??         00h
     0::00001677 00              ??         00h
     0::00001678 00              ??         00h
     0::00001679 00              ??         00h
     0::0000167a 00              ??         00h
     0::0000167b 00              ??         00h
     0::0000167c 00              ??         00h
     0::0000167d 00              ??         00h
     0::0000167e 00              ??         00h
     0::0000167f 00              ??         00h
     0::00001680 00              ??         00h
     0::00001681 00              ??         00h
     0::00001682 00              ??         00h
     0::00001683 00              ??         00h
     0::00001684 00              ??         00h
     0::00001685 00              ??         00h
     0::00001686 00              ??         00h
     0::00001687 00              ??         00h
     0::00001688 00              ??         00h
     0::00001689 00              ??         00h
     0::0000168a 00              ??         00h
     0::0000168b 00              ??         00h
     0::0000168c 00              ??         00h
     0::0000168d 00              ??         00h
     0::0000168e 00              ??         00h
     0::0000168f 00              ??         00h
     0::00001690 00              ??         00h
     0::00001691 00              ??         00h
     0::00001692 00              ??         00h
     0::00001693 00              ??         00h
     0::00001694 00              ??         00h
     0::00001695 00              ??         00h
     0::00001696 00              ??         00h
     0::00001697 00              ??         00h
     0::00001698 00              ??         00h
     0::00001699 00              ??         00h
     0::0000169a 00              ??         00h
     0::0000169b 00              ??         00h
     0::0000169c 00              ??         00h
     0::0000169d 00              ??         00h
     0::0000169e 00              ??         00h
     0::0000169f 00              ??         00h
     0::000016a0 00              ??         00h
     0::000016a1 00              ??         00h
     0::000016a2 00              ??         00h
     0::000016a3 00              ??         00h
     0::000016a4 00              ??         00h
     0::000016a5 00              ??         00h
     0::000016a6 00              ??         00h
     0::000016a7 00              ??         00h
     0::000016a8 00              ??         00h
     0::000016a9 00              ??         00h
     0::000016aa 00              ??         00h
     0::000016ab 00              ??         00h
     0::000016ac 00              ??         00h
     0::000016ad 00              ??         00h
     0::000016ae 00              ??         00h
     0::000016af 00              ??         00h
     0::000016b0 00              ??         00h
     0::000016b1 00              ??         00h
     0::000016b2 00              ??         00h
     0::000016b3 00              ??         00h
     0::000016b4 00              ??         00h
     0::000016b5 00              ??         00h
     0::000016b6 00              ??         00h
     0::000016b7 00              ??         00h
     0::000016b8 00              ??         00h
     0::000016b9 00              ??         00h
     0::000016ba 00              ??         00h
     0::000016bb 00              ??         00h
     0::000016bc 00              ??         00h
     0::000016bd 00              ??         00h
     0::000016be 00              ??         00h
     0::000016bf 00              ??         00h
     0::000016c0 00              ??         00h
     0::000016c1 00              ??         00h
     0::000016c2 00              ??         00h
     0::000016c3 00              ??         00h
     0::000016c4 00              ??         00h
     0::000016c5 00              ??         00h
     0::000016c6 00              ??         00h
     0::000016c7 00              ??         00h
     0::000016c8 00              ??         00h
     0::000016c9 00              ??         00h
     0::000016ca 00              ??         00h
     0::000016cb 00              ??         00h
     0::000016cc 00              ??         00h
     0::000016cd 00              ??         00h
     0::000016ce 00              ??         00h
     0::000016cf 00              ??         00h
     0::000016d0 00              ??         00h
     0::000016d1 00              ??         00h
     0::000016d2 00              ??         00h
     0::000016d3 00              ??         00h
     0::000016d4 00              ??         00h
     0::000016d5 00              ??         00h
     0::000016d6 00              ??         00h
     0::000016d7 00              ??         00h
     0::000016d8 00              ??         00h
     0::000016d9 00              ??         00h
     0::000016da 00              ??         00h
     0::000016db 00              ??         00h
     0::000016dc 00              ??         00h
     0::000016dd 00              ??         00h
     0::000016de 00              ??         00h
     0::000016df 00              ??         00h
     0::000016e0 00              ??         00h
     0::000016e1 00              ??         00h
     0::000016e2 00              ??         00h
     0::000016e3 00              ??         00h
     0::000016e4 00              ??         00h
     0::000016e5 00              ??         00h
     0::000016e6 00              ??         00h
     0::000016e7 00              ??         00h
     0::000016e8 00              ??         00h
     0::000016e9 00              ??         00h
     0::000016ea 00              ??         00h
     0::000016eb 00              ??         00h
     0::000016ec 00              ??         00h
     0::000016ed 00              ??         00h
     0::000016ee 00              ??         00h
     0::000016ef 00              ??         00h
     0::000016f0 00              ??         00h
     0::000016f1 00              ??         00h
     0::000016f2 00              ??         00h
     0::000016f3 00              ??         00h
     0::000016f4 00              ??         00h
     0::000016f5 00              ??         00h
     0::000016f6 00              ??         00h
     0::000016f7 00              ??         00h
     0::000016f8 00              ??         00h
     0::000016f9 00              ??         00h
     0::000016fa 00              ??         00h
     0::000016fb 00              ??         00h
     0::000016fc 00              ??         00h
     0::000016fd 00              ??         00h
     0::000016fe 00              ??         00h
     0::000016ff 00              ??         00h
     0::00001700 00              ??         00h
     0::00001701 00              ??         00h
     0::00001702 00              ??         00h
     0::00001703 00              ??         00h
     0::00001704 00              ??         00h
     0::00001705 00              ??         00h
     0::00001706 00              ??         00h
     0::00001707 00              ??         00h
     0::00001708 00              ??         00h
     0::00001709 00              ??         00h
     0::0000170a 00              ??         00h
     0::0000170b 00              ??         00h
     0::0000170c 00              ??         00h
     0::0000170d 00              ??         00h
     0::0000170e 00              ??         00h
     0::0000170f 00              ??         00h
     0::00001710 00              ??         00h
     0::00001711 00              ??         00h
     0::00001712 00              ??         00h
     0::00001713 00              ??         00h
     0::00001714 00              ??         00h
     0::00001715 00              ??         00h
     0::00001716 00              ??         00h
     0::00001717 00              ??         00h
     0::00001718 00              ??         00h
     0::00001719 00              ??         00h
     0::0000171a 00              ??         00h
     0::0000171b 00              ??         00h
     0::0000171c 00              ??         00h
     0::0000171d 00              ??         00h
     0::0000171e 00              ??         00h
     0::0000171f 00              ??         00h
     0::00001720 00              ??         00h
     0::00001721 00              ??         00h
     0::00001722 00              ??         00h
     0::00001723 00              ??         00h
     0::00001724 00              ??         00h
     0::00001725 00              ??         00h
     0::00001726 00              ??         00h
     0::00001727 00              ??         00h
     0::00001728 00              ??         00h
